GAS LISTING /tmp/cc0Eaf5F.s 			page 1


   1              		.file	"BackSemaphore.cpp"
   2              		.option pic
   3              		.option norelax
   4              		.text
   5              	.Ltext0:
   6              		.align	2
   7              		.globl	_ZN13BackSemaphoreC2Ej
   9              	_ZN13BackSemaphoreC2Ej:
  10              	.LFB6:
  11              		.file 1 "src/BackSemaphore.cpp"
   1:src/BackSemaphore.cpp **** #include "../h/BackSemaphore.hpp"
   2:src/BackSemaphore.cpp **** #include "../h/Scheduler.hpp"
   3:src/BackSemaphore.cpp **** int BackSemaphore::ident = 0;
   4:src/BackSemaphore.cpp **** 
   5:src/BackSemaphore.cpp **** BackSemaphore::BackSemaphore(unsigned init){
  12              		.loc 1 5 1
  13              		.cfi_startproc
  14              	.LVL0:
  15 0000 130101FF 		addi	sp,sp,-16
  16              		.cfi_def_cfa_offset 16
  17 0004 23348100 		sd	s0,8(sp)
  18              		.cfi_offset 8, -8
  19 0008 13040101 		addi	s0,sp,16
  20              		.cfi_def_cfa 8, 0
  21              	.LBB4:
   6:src/BackSemaphore.cpp ****     id = ident++;
  22              		.loc 1 6 5
  23              		.loc 1 6 15 is_stmt 0
  24 000c 17070000 		lla	a4,.LANCHOR0
  24      13070700 
  25 0014 83270700 		lw	a5,0(a4)
  26 0018 9B861700 		addiw	a3,a5,1
  27 001c 2320D700 		sw	a3,0(a4)
  28              		.loc 1 6 8
  29 0020 2320F500 		sw	a5,0(a0)
   7:src/BackSemaphore.cpp ****     val = init;
  30              		.loc 1 7 5 is_stmt 1
  31              		.loc 1 7 9 is_stmt 0
  32 0024 2322B500 		sw	a1,4(a0)
   8:src/BackSemaphore.cpp ****     sem_queue = nullptr;
  33              		.loc 1 8 5 is_stmt 1
  34              		.loc 1 8 15 is_stmt 0
  35 0028 23340500 		sd	zero,8(a0)
   9:src/BackSemaphore.cpp ****     sem_queue_tail = nullptr;
  36              		.loc 1 9 5 is_stmt 1
  37              		.loc 1 9 20 is_stmt 0
  38 002c 23380500 		sd	zero,16(a0)
  39              	.LBE4:
  10:src/BackSemaphore.cpp **** }
  40              		.loc 1 10 1
  41 0030 03348100 		ld	s0,8(sp)
  42              		.cfi_restore 8
  43              		.cfi_def_cfa 2, 16
  44 0034 13010101 		addi	sp,sp,16
  45              		.cfi_def_cfa_offset 0
  46 0038 67800000 		jr	ra
  47              		.cfi_endproc
GAS LISTING /tmp/cc0Eaf5F.s 			page 2


  48              	.LFE6:
  50              		.globl	_ZN13BackSemaphoreC1Ej
  51              		.set	_ZN13BackSemaphoreC1Ej,_ZN13BackSemaphoreC2Ej
  52              		.align	2
  53              		.globl	_ZN13BackSemaphoreD2Ev
  55              	_ZN13BackSemaphoreD2Ev:
  56              	.LFB9:
  11:src/BackSemaphore.cpp **** 
  12:src/BackSemaphore.cpp **** BackSemaphore::~BackSemaphore() {
  57              		.loc 1 12 1 is_stmt 1
  58              		.cfi_startproc
  59              		.cfi_personality 0x9b,DW.ref.__gxx_personality_v0
  60              		.cfi_lsda 0x1b,.LLSDA9
  61              	.LVL1:
  62              	.LBB5:
  13:src/BackSemaphore.cpp ****     PCB* current = sem_queue;
  63              		.loc 1 13 5
  64              		.loc 1 13 10 is_stmt 0
  65 003c 03358500 		ld	a0,8(a0)
  66              	.LVL2:
  14:src/BackSemaphore.cpp **** 
  15:src/BackSemaphore.cpp ****     while (current != nullptr) {
  67              		.loc 1 15 5 is_stmt 1
  68              		.loc 1 15 20
  69 0040 63040504 		beqz	a0,.L11
  70              	.LBE5:
  12:src/BackSemaphore.cpp ****     PCB* current = sem_queue;
  71              		.loc 1 12 1 is_stmt 0
  72 0044 130101FE 		addi	sp,sp,-32
  73              		.cfi_def_cfa_offset 32
  74 0048 233C1100 		sd	ra,24(sp)
  75 004c 23388100 		sd	s0,16(sp)
  76 0050 23349100 		sd	s1,8(sp)
  77              		.cfi_offset 1, -8
  78              		.cfi_offset 8, -16
  79              		.cfi_offset 9, -24
  80 0054 13040102 		addi	s0,sp,32
  81              		.cfi_def_cfa 8, 0
  82              	.L9:
  83              	.LBB7:
  84              	.LBB6:
  16:src/BackSemaphore.cpp ****         PCB* next = current->next;
  85              		.loc 1 16 9 is_stmt 1
  86              		.loc 1 16 14 is_stmt 0
  87 0058 83348502 		ld	s1,40(a0)
  88              	.LVL3:
  17:src/BackSemaphore.cpp **** 
  18:src/BackSemaphore.cpp ****         current->state = ThreadState::READY;
  89              		.loc 1 18 9 is_stmt 1
  90              		.loc 1 18 24 is_stmt 0
  91 005c 93071000 		li	a5,1
  92 0060 2320F500 		sw	a5,0(a0)
  19:src/BackSemaphore.cpp ****         Scheduler::push(current);
  93              		.loc 1 19 9 is_stmt 1
  94              		.loc 1 19 24 is_stmt 0
  95 0064 97000000 		call	_ZN9Scheduler4pushEP3PCB@plt
  95      E7800000 
GAS LISTING /tmp/cc0Eaf5F.s 			page 3


  96              	.LVL4:
  20:src/BackSemaphore.cpp **** 
  21:src/BackSemaphore.cpp ****         current = next;
  97              		.loc 1 21 9 is_stmt 1
  98              		.loc 1 21 17 is_stmt 0
  99 006c 13850400 		mv	a0,s1
 100              	.LBE6:
  15:src/BackSemaphore.cpp ****         PCB* next = current->next;
 101              		.loc 1 15 5 is_stmt 1
  15:src/BackSemaphore.cpp ****         PCB* next = current->next;
 102              		.loc 1 15 20
 103 0070 E39404FE 		bnez	s1,.L9
 104              	.LBE7:
  22:src/BackSemaphore.cpp ****     }
  23:src/BackSemaphore.cpp **** 
  24:src/BackSemaphore.cpp ****     sem_queue = nullptr;
  25:src/BackSemaphore.cpp ****     sem_queue_tail = nullptr;
  26:src/BackSemaphore.cpp **** 
  27:src/BackSemaphore.cpp **** }
 105              		.loc 1 27 1 is_stmt 0
 106 0074 83308101 		ld	ra,24(sp)
 107              		.cfi_restore 1
 108 0078 03340101 		ld	s0,16(sp)
 109              		.cfi_restore 8
 110              		.cfi_def_cfa 2, 32
 111 007c 83348100 		ld	s1,8(sp)
 112              		.cfi_restore 9
 113              	.LVL5:
 114 0080 13010102 		addi	sp,sp,32
 115              		.cfi_def_cfa_offset 0
 116 0084 67800000 		jr	ra
 117              	.LVL6:
 118              	.L11:
 119 0088 67800000 		ret
 120              		.cfi_endproc
 121              	.LFE9:
 122              		.globl	__gxx_personality_v0
 123              		.section	.gcc_except_table,"a",@progbits
 124              	.LLSDA9:
 125 0000 FF       		.byte	0xff
 126 0001 FF       		.byte	0xff
 127 0002 03       		.byte	0x3
 128 0003 00       		.byte	0
 129              		.text
 131              		.globl	_ZN13BackSemaphoreD1Ev
 132              		.set	_ZN13BackSemaphoreD1Ev,_ZN13BackSemaphoreD2Ev
 133              		.align	2
 134              		.globl	_ZN13BackSemaphore4waitEv
 136              	_ZN13BackSemaphore4waitEv:
 137              	.LFB11:
  28:src/BackSemaphore.cpp **** 
  29:src/BackSemaphore.cpp **** 
  30:src/BackSemaphore.cpp **** int BackSemaphore::wait() {
 138              		.loc 1 30 27 is_stmt 1
 139              		.cfi_startproc
 140              	.LVL7:
  31:src/BackSemaphore.cpp ****     this->val = this->val - 1;
GAS LISTING /tmp/cc0Eaf5F.s 			page 4


 141              		.loc 1 31 5
 142              		.loc 1 31 23 is_stmt 0
 143 008c 83274500 		lw	a5,4(a0)
 144              		.loc 1 31 27
 145 0090 9B87F7FF 		addiw	a5,a5,-1
 146              		.loc 1 31 15
 147 0094 2322F500 		sw	a5,4(a0)
  32:src/BackSemaphore.cpp **** 
  33:src/BackSemaphore.cpp ****     if (this->get_val() < 0) {
 148              		.loc 1 33 5 is_stmt 1
 149              	.LVL8:
 150              		.file 2 "src/../h/BackSemaphore.hpp"
   1:src/../h/BackSemaphore.hpp **** #pragma once
   2:src/../h/BackSemaphore.hpp **** #include "PCB.hpp"
   3:src/../h/BackSemaphore.hpp **** 
   4:src/../h/BackSemaphore.hpp **** class BackSemaphore{
   5:src/../h/BackSemaphore.hpp **** public:
   6:src/../h/BackSemaphore.hpp ****     BackSemaphore(unsigned init = 1);
   7:src/../h/BackSemaphore.hpp ****     ~BackSemaphore ();
   8:src/../h/BackSemaphore.hpp ****     int wait ();
   9:src/../h/BackSemaphore.hpp ****     int signal ();
  10:src/../h/BackSemaphore.hpp ****     int tryWait();
  11:src/../h/BackSemaphore.hpp ****     int get_val() {return val;}
 151              		.loc 2 11 20
 152              		.loc 1 33 5 is_stmt 0
 153 0098 13970702 		slli	a4,a5,32
 154 009c 63460700 		bltz	a4,.L20
  34:src/BackSemaphore.cpp ****         if (sem_queue == nullptr) {
  35:src/BackSemaphore.cpp ****             sem_queue = PCB::running;
  36:src/BackSemaphore.cpp ****             sem_queue_tail = PCB::running;
  37:src/BackSemaphore.cpp ****         } else {
  38:src/BackSemaphore.cpp ****             sem_queue_tail->next = PCB::running;
  39:src/BackSemaphore.cpp ****             sem_queue_tail = PCB::running;
  40:src/BackSemaphore.cpp ****         }
  41:src/BackSemaphore.cpp **** 
  42:src/BackSemaphore.cpp ****         PCB::running->state = ThreadState::BLOCKED;
  43:src/BackSemaphore.cpp **** 
  44:src/BackSemaphore.cpp ****         PCB::dispatch();
  45:src/BackSemaphore.cpp **** 
  46:src/BackSemaphore.cpp ****         return 0;
  47:src/BackSemaphore.cpp ****     }
  48:src/BackSemaphore.cpp **** 
  49:src/BackSemaphore.cpp **** 
  50:src/BackSemaphore.cpp ****     return 0;
  51:src/BackSemaphore.cpp **** }
 155              		.loc 1 51 1
 156 00a0 13050000 		li	a0,0
 157              	.LVL9:
 158 00a4 67800000 		ret
 159              	.LVL10:
 160              	.L20:
  30:src/BackSemaphore.cpp ****     this->val = this->val - 1;
 161              		.loc 1 30 27
 162 00a8 130101FF 		addi	sp,sp,-16
 163              		.cfi_def_cfa_offset 16
 164 00ac 23341100 		sd	ra,8(sp)
 165 00b0 23308100 		sd	s0,0(sp)
GAS LISTING /tmp/cc0Eaf5F.s 			page 5


 166              		.cfi_offset 1, -8
 167              		.cfi_offset 8, -16
 168 00b4 13040101 		addi	s0,sp,16
 169              		.cfi_def_cfa 8, 0
  34:src/BackSemaphore.cpp ****         if (sem_queue == nullptr) {
 170              		.loc 1 34 9 is_stmt 1
  34:src/BackSemaphore.cpp ****         if (sem_queue == nullptr) {
 171              		.loc 1 34 13 is_stmt 0
 172 00b8 83378500 		ld	a5,8(a0)
  34:src/BackSemaphore.cpp ****         if (sem_queue == nullptr) {
 173              		.loc 1 34 9
 174 00bc 63860704 		beqz	a5,.L21
  38:src/BackSemaphore.cpp ****             sem_queue_tail = PCB::running;
 175              		.loc 1 38 13 is_stmt 1
 176 00c0 03370501 		ld	a4,16(a0)
  38:src/BackSemaphore.cpp ****             sem_queue_tail = PCB::running;
 177              		.loc 1 38 34 is_stmt 0
 178 00c4 97070000 		la	a5,_ZN3PCB7runningE
 178      83B70700 
 179 00cc 83B70700 		ld	a5,0(a5)
 180 00d0 2334F702 		sd	a5,40(a4)
  39:src/BackSemaphore.cpp ****         }
 181              		.loc 1 39 13 is_stmt 1
  39:src/BackSemaphore.cpp ****         }
 182              		.loc 1 39 28 is_stmt 0
 183 00d4 2338F500 		sd	a5,16(a0)
 184              	.L15:
  42:src/BackSemaphore.cpp **** 
 185              		.loc 1 42 9 is_stmt 1
  42:src/BackSemaphore.cpp **** 
 186              		.loc 1 42 23 is_stmt 0
 187 00d8 97070000 		la	a5,_ZN3PCB7runningE
 187      83B70700 
 188 00e0 83B70700 		ld	a5,0(a5)
  42:src/BackSemaphore.cpp **** 
 189              		.loc 1 42 29
 190 00e4 13073000 		li	a4,3
 191 00e8 23A0E700 		sw	a4,0(a5)
  44:src/BackSemaphore.cpp **** 
 192              		.loc 1 44 9 is_stmt 1
  44:src/BackSemaphore.cpp **** 
 193              		.loc 1 44 22 is_stmt 0
 194 00ec 97000000 		call	_ZN3PCB8dispatchEv@plt
 194      E7800000 
 195              	.LVL11:
  46:src/BackSemaphore.cpp ****     }
 196              		.loc 1 46 9 is_stmt 1
 197              		.loc 1 51 1 is_stmt 0
 198 00f4 13050000 		li	a0,0
 199 00f8 83308100 		ld	ra,8(sp)
 200              		.cfi_remember_state
 201              		.cfi_restore 1
 202 00fc 03340100 		ld	s0,0(sp)
 203              		.cfi_restore 8
 204              		.cfi_def_cfa 2, 16
 205 0100 13010101 		addi	sp,sp,16
 206              		.cfi_def_cfa_offset 0
GAS LISTING /tmp/cc0Eaf5F.s 			page 6


 207 0104 67800000 		jr	ra
 208              	.LVL12:
 209              	.L21:
 210              		.cfi_restore_state
  35:src/BackSemaphore.cpp ****             sem_queue_tail = PCB::running;
 211              		.loc 1 35 13 is_stmt 1
  35:src/BackSemaphore.cpp ****             sem_queue_tail = PCB::running;
 212              		.loc 1 35 23 is_stmt 0
 213 0108 97070000 		la	a5,_ZN3PCB7runningE
 213      83B70700 
 214 0110 83B70700 		ld	a5,0(a5)
 215 0114 2334F500 		sd	a5,8(a0)
  36:src/BackSemaphore.cpp ****         } else {
 216              		.loc 1 36 13 is_stmt 1
  36:src/BackSemaphore.cpp ****         } else {
 217              		.loc 1 36 28 is_stmt 0
 218 0118 2338F500 		sd	a5,16(a0)
 219 011c 6FF0DFFB 		j	.L15
 220              		.cfi_endproc
 221              	.LFE11:
 223              		.align	2
 224              		.globl	_ZN13BackSemaphore6signalEv
 226              	_ZN13BackSemaphore6signalEv:
 227              	.LFB12:
  52:src/BackSemaphore.cpp **** 
  53:src/BackSemaphore.cpp **** 
  54:src/BackSemaphore.cpp **** int BackSemaphore::signal() {
 228              		.loc 1 54 29 is_stmt 1
 229              		.cfi_startproc
 230              	.LVL13:
  55:src/BackSemaphore.cpp ****     this->val = this->val + 1;
 231              		.loc 1 55 5
 232              		.loc 1 55 23 is_stmt 0
 233 0120 03274500 		lw	a4,4(a0)
 234              		.loc 1 55 27
 235 0124 1B071700 		addiw	a4,a4,1
 236 0128 9B060700 		sext.w	a3,a4
 237              		.loc 1 55 15
 238 012c 2322E500 		sw	a4,4(a0)
  56:src/BackSemaphore.cpp ****     if (this->val <= 0 && sem_queue != nullptr) {
 239              		.loc 1 56 5 is_stmt 1
 240              	.LBB8:
 241 0130 6356D000 		blez	a3,.L29
 242              	.LVL14:
 243              	.L26:
 244              	.LBE8:
  57:src/BackSemaphore.cpp ****         PCB* pcb = sem_queue;
  58:src/BackSemaphore.cpp **** 
  59:src/BackSemaphore.cpp ****         sem_queue = sem_queue->next;
  60:src/BackSemaphore.cpp **** 
  61:src/BackSemaphore.cpp ****         if (sem_queue == nullptr) {
  62:src/BackSemaphore.cpp ****             sem_queue_tail = nullptr;
  63:src/BackSemaphore.cpp ****         }
  64:src/BackSemaphore.cpp ****         pcb->state = ThreadState::READY;
  65:src/BackSemaphore.cpp ****         Scheduler::push(pcb);
  66:src/BackSemaphore.cpp ****     }
  67:src/BackSemaphore.cpp **** 
GAS LISTING /tmp/cc0Eaf5F.s 			page 7


  68:src/BackSemaphore.cpp ****     return 0;
 245              		.loc 1 68 5
  69:src/BackSemaphore.cpp **** }
 246              		.loc 1 69 1 is_stmt 0
 247 0134 13050000 		li	a0,0
 248 0138 67800000 		ret
 249              	.LVL15:
 250              	.L29:
 251 013c 93070500 		mv	a5,a0
 252              	.LBB11:
  56:src/BackSemaphore.cpp ****     if (this->val <= 0 && sem_queue != nullptr) {
 253              		.loc 1 56 27 discriminator 1
 254 0140 03358500 		ld	a0,8(a0)
 255              	.LVL16:
  56:src/BackSemaphore.cpp ****     if (this->val <= 0 && sem_queue != nullptr) {
 256              		.loc 1 56 24 discriminator 1
 257 0144 E30805FE 		beqz	a0,.L26
 258              	.LBE11:
  54:src/BackSemaphore.cpp ****     this->val = this->val + 1;
 259              		.loc 1 54 29
 260 0148 130101FF 		addi	sp,sp,-16
 261              		.cfi_def_cfa_offset 16
 262 014c 23341100 		sd	ra,8(sp)
 263 0150 23308100 		sd	s0,0(sp)
 264              		.cfi_offset 1, -8
 265              		.cfi_offset 8, -16
 266 0154 13040101 		addi	s0,sp,16
 267              		.cfi_def_cfa 8, 0
 268              	.LBB12:
 269              	.LBB9:
  57:src/BackSemaphore.cpp ****         PCB* pcb = sem_queue;
 270              		.loc 1 57 9 is_stmt 1
 271              	.LVL17:
  59:src/BackSemaphore.cpp **** 
 272              		.loc 1 59 9
  59:src/BackSemaphore.cpp **** 
 273              		.loc 1 59 32 is_stmt 0
 274 0158 03378502 		ld	a4,40(a0)
  59:src/BackSemaphore.cpp **** 
 275              		.loc 1 59 19
 276 015c 23B4E700 		sd	a4,8(a5)
  61:src/BackSemaphore.cpp ****             sem_queue_tail = nullptr;
 277              		.loc 1 61 9 is_stmt 1
 278 0160 63040702 		beqz	a4,.L30
 279              	.L24:
  64:src/BackSemaphore.cpp ****         Scheduler::push(pcb);
 280              		.loc 1 64 9
  64:src/BackSemaphore.cpp ****         Scheduler::push(pcb);
 281              		.loc 1 64 20 is_stmt 0
 282 0164 93071000 		li	a5,1
 283              	.LVL18:
 284 0168 2320F500 		sw	a5,0(a0)
  65:src/BackSemaphore.cpp ****     }
 285              		.loc 1 65 9 is_stmt 1
  65:src/BackSemaphore.cpp ****     }
 286              		.loc 1 65 24 is_stmt 0
 287 016c 97000000 		call	_ZN9Scheduler4pushEP3PCB@plt
GAS LISTING /tmp/cc0Eaf5F.s 			page 8


 287      E7800000 
 288              	.LVL19:
 289              	.LBE9:
 290              	.LBE12:
  68:src/BackSemaphore.cpp **** }
 291              		.loc 1 68 5 is_stmt 1
 292              		.loc 1 69 1 is_stmt 0
 293 0174 13050000 		li	a0,0
 294 0178 83308100 		ld	ra,8(sp)
 295              		.cfi_remember_state
 296              		.cfi_restore 1
 297 017c 03340100 		ld	s0,0(sp)
 298              		.cfi_restore 8
 299              		.cfi_def_cfa 2, 16
 300 0180 13010101 		addi	sp,sp,16
 301              		.cfi_def_cfa_offset 0
 302 0184 67800000 		jr	ra
 303              	.LVL20:
 304              	.L30:
 305              		.cfi_restore_state
 306              	.LBB13:
 307              	.LBB10:
  62:src/BackSemaphore.cpp ****         }
 308              		.loc 1 62 13 is_stmt 1
  62:src/BackSemaphore.cpp ****         }
 309              		.loc 1 62 28 is_stmt 0
 310 0188 23B80700 		sd	zero,16(a5)
 311 018c 6FF09FFD 		j	.L24
 312              	.LBE10:
 313              	.LBE13:
 314              		.cfi_endproc
 315              	.LFE12:
 317              		.align	2
 318              		.globl	_ZN13BackSemaphore7tryWaitEv
 320              	_ZN13BackSemaphore7tryWaitEv:
 321              	.LFB13:
  70:src/BackSemaphore.cpp **** 
  71:src/BackSemaphore.cpp **** 
  72:src/BackSemaphore.cpp **** int BackSemaphore::tryWait(){
 322              		.loc 1 72 29 is_stmt 1
 323              		.cfi_startproc
 324              	.LVL21:
 325 0190 130101FF 		addi	sp,sp,-16
 326              		.cfi_def_cfa_offset 16
 327 0194 23348100 		sd	s0,8(sp)
 328              		.cfi_offset 8, -8
 329 0198 13040101 		addi	s0,sp,16
 330              		.cfi_def_cfa 8, 0
  73:src/BackSemaphore.cpp ****     if (this->val > 0) {
 331              		.loc 1 73 5
 332              		.loc 1 73 15 is_stmt 0
 333 019c 83274500 		lw	a5,4(a0)
 334              		.loc 1 73 5
 335 01a0 635EF000 		blez	a5,.L33
  74:src/BackSemaphore.cpp ****         this->val = this->val - 1;
 336              		.loc 1 74 9 is_stmt 1
 337              		.loc 1 74 31 is_stmt 0
GAS LISTING /tmp/cc0Eaf5F.s 			page 9


 338 01a4 9B87F7FF 		addiw	a5,a5,-1
 339              		.loc 1 74 19
 340 01a8 2322F500 		sw	a5,4(a0)
  75:src/BackSemaphore.cpp ****         return 0;
 341              		.loc 1 75 9 is_stmt 1
 342              		.loc 1 75 16 is_stmt 0
 343 01ac 13050000 		li	a0,0
 344              	.LVL22:
 345              	.L32:
  76:src/BackSemaphore.cpp ****     }
  77:src/BackSemaphore.cpp **** 
  78:src/BackSemaphore.cpp ****     if (this->val <= 0) {
  79:src/BackSemaphore.cpp ****         return 1;
  80:src/BackSemaphore.cpp ****     }
  81:src/BackSemaphore.cpp **** 
  82:src/BackSemaphore.cpp ****     return -1;
  83:src/BackSemaphore.cpp **** }
 346              		.loc 1 83 1
 347 01b0 03348100 		ld	s0,8(sp)
 348              		.cfi_remember_state
 349              		.cfi_restore 8
 350              		.cfi_def_cfa 2, 16
 351 01b4 13010101 		addi	sp,sp,16
 352              		.cfi_def_cfa_offset 0
 353 01b8 67800000 		jr	ra
 354              	.LVL23:
 355              	.L33:
 356              		.cfi_restore_state
  79:src/BackSemaphore.cpp ****     }
 357              		.loc 1 79 16
 358 01bc 13051000 		li	a0,1
 359              	.LVL24:
 360 01c0 6FF01FFF 		j	.L32
 361              		.cfi_endproc
 362              	.LFE13:
 364              		.globl	_ZN13BackSemaphore5identE
 365              		.bss
 366              		.align	2
 367              		.set	.LANCHOR0,. + 0
 370              	_ZN13BackSemaphore5identE:
 371 0000 00000000 		.zero	4
 372              		.text
 373              	.Letext0:
 374              		.file 3 "src/../h/../h/../lib/hw.h"
 375              		.file 4 "src/../h/PCB.hpp"
 376              		.file 5 "src/../h/Scheduler.hpp"
 2251              		.align	3
 2254              	DW.ref.__gxx_personality_v0:
 2255 0000 00000000 		.dword	__gxx_personality_v0
 2255      00000000 
 2256              		.ident	"GCC: (Ubuntu 9.4.0-1ubuntu1~20.04) 9.4.0"
 2257              		.section	.note.GNU-stack,"",@progbits
GAS LISTING /tmp/cc0Eaf5F.s 			page 10


DEFINED SYMBOLS
                            *ABS*:0000000000000000 BackSemaphore.cpp
     /tmp/cc0Eaf5F.s:9      .text:0000000000000000 _ZN13BackSemaphoreC2Ej
     /tmp/cc0Eaf5F.s:13     .text:0000000000000000 .L0 
     /tmp/cc0Eaf5F.s:15     .text:0000000000000000 .L0 
     /tmp/cc0Eaf5F.s:16     .text:0000000000000004 .L0 
     /tmp/cc0Eaf5F.s:18     .text:0000000000000008 .L0 
     /tmp/cc0Eaf5F.s:20     .text:000000000000000c .L0 
     /tmp/cc0Eaf5F.s:23     .text:000000000000000c .L0 
     /tmp/cc0Eaf5F.s:24     .text:000000000000000c .L0 
     /tmp/cc0Eaf5F.s:29     .text:0000000000000020 .L0 
     /tmp/cc0Eaf5F.s:31     .text:0000000000000024 .L0 
     /tmp/cc0Eaf5F.s:32     .text:0000000000000024 .L0 
     /tmp/cc0Eaf5F.s:34     .text:0000000000000028 .L0 
     /tmp/cc0Eaf5F.s:35     .text:0000000000000028 .L0 
     /tmp/cc0Eaf5F.s:37     .text:000000000000002c .L0 
     /tmp/cc0Eaf5F.s:38     .text:000000000000002c .L0 
     /tmp/cc0Eaf5F.s:41     .text:0000000000000030 .L0 
     /tmp/cc0Eaf5F.s:42     .text:0000000000000034 .L0 
     /tmp/cc0Eaf5F.s:43     .text:0000000000000034 .L0 
     /tmp/cc0Eaf5F.s:45     .text:0000000000000038 .L0 
     /tmp/cc0Eaf5F.s:47     .text:000000000000003c .L0 
     /tmp/cc0Eaf5F.s:9      .text:0000000000000000 _ZN13BackSemaphoreC1Ej
     /tmp/cc0Eaf5F.s:55     .text:000000000000003c _ZN13BackSemaphoreD2Ev
     /tmp/cc0Eaf5F.s:58     .text:000000000000003c .L0 
     /tmp/cc0Eaf5F.s:2254   .data.rel.local.DW.ref.__gxx_personality_v0:0000000000000000 DW.ref.__gxx_personality_v0
     /tmp/cc0Eaf5F.s:63     .text:000000000000003c .L0 
     /tmp/cc0Eaf5F.s:64     .text:000000000000003c .L0 
     /tmp/cc0Eaf5F.s:65     .text:000000000000003c .L0 
     /tmp/cc0Eaf5F.s:68     .text:0000000000000040 .L0 
     /tmp/cc0Eaf5F.s:69     .text:0000000000000040 .L0 
     /tmp/cc0Eaf5F.s:72     .text:0000000000000044 .L0 
     /tmp/cc0Eaf5F.s:73     .text:0000000000000048 .L0 
     /tmp/cc0Eaf5F.s:77     .text:0000000000000054 .L0 
     /tmp/cc0Eaf5F.s:78     .text:0000000000000054 .L0 
     /tmp/cc0Eaf5F.s:79     .text:0000000000000054 .L0 
     /tmp/cc0Eaf5F.s:81     .text:0000000000000058 .L0 
     /tmp/cc0Eaf5F.s:86     .text:0000000000000058 .L0 
     /tmp/cc0Eaf5F.s:87     .text:0000000000000058 .L0 
     /tmp/cc0Eaf5F.s:90     .text:000000000000005c .L0 
     /tmp/cc0Eaf5F.s:91     .text:000000000000005c .L0 
     /tmp/cc0Eaf5F.s:94     .text:0000000000000064 .L0 
     /tmp/cc0Eaf5F.s:95     .text:0000000000000064 .L0 
     /tmp/cc0Eaf5F.s:98     .text:000000000000006c .L0 
     /tmp/cc0Eaf5F.s:99     .text:000000000000006c .L0 
     /tmp/cc0Eaf5F.s:102    .text:0000000000000070 .L0 
     /tmp/cc0Eaf5F.s:103    .text:0000000000000070 .L0 
     /tmp/cc0Eaf5F.s:106    .text:0000000000000074 .L0 
     /tmp/cc0Eaf5F.s:107    .text:0000000000000078 .L0 
     /tmp/cc0Eaf5F.s:109    .text:000000000000007c .L0 
     /tmp/cc0Eaf5F.s:110    .text:000000000000007c .L0 
     /tmp/cc0Eaf5F.s:112    .text:0000000000000080 .L0 
     /tmp/cc0Eaf5F.s:115    .text:0000000000000084 .L0 
     /tmp/cc0Eaf5F.s:120    .text:000000000000008c .L0 
     /tmp/cc0Eaf5F.s:55     .text:000000000000003c _ZN13BackSemaphoreD1Ev
     /tmp/cc0Eaf5F.s:136    .text:000000000000008c _ZN13BackSemaphore4waitEv
     /tmp/cc0Eaf5F.s:139    .text:000000000000008c .L0 
GAS LISTING /tmp/cc0Eaf5F.s 			page 11


     /tmp/cc0Eaf5F.s:141    .text:000000000000008c .L0 
     /tmp/cc0Eaf5F.s:142    .text:000000000000008c .L0 
     /tmp/cc0Eaf5F.s:143    .text:000000000000008c .L0 
     /tmp/cc0Eaf5F.s:145    .text:0000000000000090 .L0 
     /tmp/cc0Eaf5F.s:147    .text:0000000000000094 .L0 
     /tmp/cc0Eaf5F.s:151    .text:0000000000000098 .L0 
     /tmp/cc0Eaf5F.s:152    .text:0000000000000098 .L0 
     /tmp/cc0Eaf5F.s:153    .text:0000000000000098 .L0 
     /tmp/cc0Eaf5F.s:156    .text:00000000000000a0 .L0 
     /tmp/cc0Eaf5F.s:162    .text:00000000000000a8 .L0 
     /tmp/cc0Eaf5F.s:163    .text:00000000000000ac .L0 
     /tmp/cc0Eaf5F.s:166    .text:00000000000000b4 .L0 
     /tmp/cc0Eaf5F.s:167    .text:00000000000000b4 .L0 
     /tmp/cc0Eaf5F.s:169    .text:00000000000000b8 .L0 
     /tmp/cc0Eaf5F.s:171    .text:00000000000000b8 .L0 
     /tmp/cc0Eaf5F.s:172    .text:00000000000000b8 .L0 
     /tmp/cc0Eaf5F.s:174    .text:00000000000000bc .L0 
     /tmp/cc0Eaf5F.s:176    .text:00000000000000c0 .L0 
     /tmp/cc0Eaf5F.s:178    .text:00000000000000c4 .L0 
     /tmp/cc0Eaf5F.s:182    .text:00000000000000d4 .L0 
     /tmp/cc0Eaf5F.s:183    .text:00000000000000d4 .L0 
     /tmp/cc0Eaf5F.s:186    .text:00000000000000d8 .L0 
     /tmp/cc0Eaf5F.s:187    .text:00000000000000d8 .L0 
     /tmp/cc0Eaf5F.s:190    .text:00000000000000e4 .L0 
     /tmp/cc0Eaf5F.s:193    .text:00000000000000ec .L0 
     /tmp/cc0Eaf5F.s:194    .text:00000000000000ec .L0 
     /tmp/cc0Eaf5F.s:197    .text:00000000000000f4 .L0 
     /tmp/cc0Eaf5F.s:198    .text:00000000000000f4 .L0 
     /tmp/cc0Eaf5F.s:200    .text:00000000000000fc .L0 
     /tmp/cc0Eaf5F.s:201    .text:00000000000000fc .L0 
     /tmp/cc0Eaf5F.s:203    .text:0000000000000100 .L0 
     /tmp/cc0Eaf5F.s:204    .text:0000000000000100 .L0 
     /tmp/cc0Eaf5F.s:206    .text:0000000000000104 .L0 
     /tmp/cc0Eaf5F.s:210    .text:0000000000000108 .L0 
     /tmp/cc0Eaf5F.s:212    .text:0000000000000108 .L0 
     /tmp/cc0Eaf5F.s:213    .text:0000000000000108 .L0 
     /tmp/cc0Eaf5F.s:217    .text:0000000000000118 .L0 
     /tmp/cc0Eaf5F.s:218    .text:0000000000000118 .L0 
     /tmp/cc0Eaf5F.s:220    .text:0000000000000120 .L0 
     /tmp/cc0Eaf5F.s:226    .text:0000000000000120 _ZN13BackSemaphore6signalEv
     /tmp/cc0Eaf5F.s:229    .text:0000000000000120 .L0 
     /tmp/cc0Eaf5F.s:231    .text:0000000000000120 .L0 
     /tmp/cc0Eaf5F.s:232    .text:0000000000000120 .L0 
     /tmp/cc0Eaf5F.s:233    .text:0000000000000120 .L0 
     /tmp/cc0Eaf5F.s:235    .text:0000000000000124 .L0 
     /tmp/cc0Eaf5F.s:238    .text:000000000000012c .L0 
     /tmp/cc0Eaf5F.s:241    .text:0000000000000130 .L0 
     /tmp/cc0Eaf5F.s:246    .text:0000000000000134 .L0 
     /tmp/cc0Eaf5F.s:247    .text:0000000000000134 .L0 
     /tmp/cc0Eaf5F.s:254    .text:0000000000000140 .L0 
     /tmp/cc0Eaf5F.s:257    .text:0000000000000144 .L0 
     /tmp/cc0Eaf5F.s:260    .text:0000000000000148 .L0 
     /tmp/cc0Eaf5F.s:261    .text:000000000000014c .L0 
     /tmp/cc0Eaf5F.s:264    .text:0000000000000154 .L0 
     /tmp/cc0Eaf5F.s:265    .text:0000000000000154 .L0 
     /tmp/cc0Eaf5F.s:267    .text:0000000000000158 .L0 
     /tmp/cc0Eaf5F.s:272    .text:0000000000000158 .L0 
GAS LISTING /tmp/cc0Eaf5F.s 			page 12


     /tmp/cc0Eaf5F.s:273    .text:0000000000000158 .L0 
     /tmp/cc0Eaf5F.s:274    .text:0000000000000158 .L0 
     /tmp/cc0Eaf5F.s:276    .text:000000000000015c .L0 
     /tmp/cc0Eaf5F.s:278    .text:0000000000000160 .L0 
     /tmp/cc0Eaf5F.s:281    .text:0000000000000164 .L0 
     /tmp/cc0Eaf5F.s:282    .text:0000000000000164 .L0 
     /tmp/cc0Eaf5F.s:286    .text:000000000000016c .L0 
     /tmp/cc0Eaf5F.s:287    .text:000000000000016c .L0 
     /tmp/cc0Eaf5F.s:292    .text:0000000000000174 .L0 
     /tmp/cc0Eaf5F.s:293    .text:0000000000000174 .L0 
     /tmp/cc0Eaf5F.s:295    .text:000000000000017c .L0 
     /tmp/cc0Eaf5F.s:296    .text:000000000000017c .L0 
     /tmp/cc0Eaf5F.s:298    .text:0000000000000180 .L0 
     /tmp/cc0Eaf5F.s:299    .text:0000000000000180 .L0 
     /tmp/cc0Eaf5F.s:301    .text:0000000000000184 .L0 
     /tmp/cc0Eaf5F.s:305    .text:0000000000000188 .L0 
     /tmp/cc0Eaf5F.s:309    .text:0000000000000188 .L0 
     /tmp/cc0Eaf5F.s:310    .text:0000000000000188 .L0 
     /tmp/cc0Eaf5F.s:314    .text:0000000000000190 .L0 
     /tmp/cc0Eaf5F.s:320    .text:0000000000000190 _ZN13BackSemaphore7tryWaitEv
     /tmp/cc0Eaf5F.s:323    .text:0000000000000190 .L0 
     /tmp/cc0Eaf5F.s:325    .text:0000000000000190 .L0 
     /tmp/cc0Eaf5F.s:326    .text:0000000000000194 .L0 
     /tmp/cc0Eaf5F.s:328    .text:0000000000000198 .L0 
     /tmp/cc0Eaf5F.s:330    .text:000000000000019c .L0 
     /tmp/cc0Eaf5F.s:332    .text:000000000000019c .L0 
     /tmp/cc0Eaf5F.s:333    .text:000000000000019c .L0 
     /tmp/cc0Eaf5F.s:335    .text:00000000000001a0 .L0 
     /tmp/cc0Eaf5F.s:337    .text:00000000000001a4 .L0 
     /tmp/cc0Eaf5F.s:338    .text:00000000000001a4 .L0 
     /tmp/cc0Eaf5F.s:340    .text:00000000000001a8 .L0 
     /tmp/cc0Eaf5F.s:342    .text:00000000000001ac .L0 
     /tmp/cc0Eaf5F.s:343    .text:00000000000001ac .L0 
     /tmp/cc0Eaf5F.s:347    .text:00000000000001b0 .L0 
     /tmp/cc0Eaf5F.s:348    .text:00000000000001b4 .L0 
     /tmp/cc0Eaf5F.s:349    .text:00000000000001b4 .L0 
     /tmp/cc0Eaf5F.s:350    .text:00000000000001b4 .L0 
     /tmp/cc0Eaf5F.s:352    .text:00000000000001b8 .L0 
     /tmp/cc0Eaf5F.s:356    .text:00000000000001bc .L0 
     /tmp/cc0Eaf5F.s:358    .text:00000000000001bc .L0 
     /tmp/cc0Eaf5F.s:361    .text:00000000000001c4 .L0 
     /tmp/cc0Eaf5F.s:370    .bss:0000000000000000 _ZN13BackSemaphore5identE
     /tmp/cc0Eaf5F.s:367    .bss:0000000000000000 .LANCHOR0
     /tmp/cc0Eaf5F.s:377    .text:00000000000001c4 .L0 
     /tmp/cc0Eaf5F.s:24     .text:000000000000000c .L0 
     /tmp/cc0Eaf5F.s:178    .text:00000000000000c4 .L0 
     /tmp/cc0Eaf5F.s:187    .text:00000000000000d8 .L0 
     /tmp/cc0Eaf5F.s:213    .text:0000000000000108 .L0 
     /tmp/cc0Eaf5F.s:118    .text:0000000000000088 .L11
     /tmp/cc0Eaf5F.s:82     .text:0000000000000058 .L9
     /tmp/cc0Eaf5F.s:160    .text:00000000000000a8 .L20
     /tmp/cc0Eaf5F.s:209    .text:0000000000000108 .L21
     /tmp/cc0Eaf5F.s:184    .text:00000000000000d8 .L15
     /tmp/cc0Eaf5F.s:250    .text:000000000000013c .L29
     /tmp/cc0Eaf5F.s:243    .text:0000000000000134 .L26
     /tmp/cc0Eaf5F.s:304    .text:0000000000000188 .L30
     /tmp/cc0Eaf5F.s:279    .text:0000000000000164 .L24
GAS LISTING /tmp/cc0Eaf5F.s 			page 13


     /tmp/cc0Eaf5F.s:355    .text:00000000000001bc .L33
     /tmp/cc0Eaf5F.s:345    .text:00000000000001b0 .L32
     /tmp/cc0Eaf5F.s:1138   .debug_abbrev:0000000000000000 .Ldebug_abbrev0
     /tmp/cc0Eaf5F.s:2224   .debug_str:00000000000003f7 .LASF78
     /tmp/cc0Eaf5F.s:2168   .debug_str:000000000000028e .LASF79
     /tmp/cc0Eaf5F.s:2136   .debug_str:00000000000001c7 .LASF80
     /tmp/cc0Eaf5F.s:5      .text:0000000000000000 .Ltext0
     /tmp/cc0Eaf5F.s:373    .text:00000000000001c4 .Letext0
     /tmp/cc0Eaf5F.s:2078   .debug_line:0000000000000000 .Ldebug_line0
     /tmp/cc0Eaf5F.s:2172   .debug_str:00000000000002b7 .LASF0
     /tmp/cc0Eaf5F.s:2184   .debug_str:00000000000002fb .LASF1
     /tmp/cc0Eaf5F.s:2164   .debug_str:0000000000000274 .LASF2
     /tmp/cc0Eaf5F.s:2150   .debug_str:0000000000000232 .LASF4
     /tmp/cc0Eaf5F.s:2214   .debug_str:00000000000003ab .LASF3
     /tmp/cc0Eaf5F.s:2102   .debug_str:00000000000000a1 .LASF5
     /tmp/cc0Eaf5F.s:2186   .debug_str:000000000000030e .LASF6
     /tmp/cc0Eaf5F.s:2170   .debug_str:00000000000002a4 .LASF7
     /tmp/cc0Eaf5F.s:2232   .debug_str:00000000000004ef .LASF8
     /tmp/cc0Eaf5F.s:2142   .debug_str:00000000000001fe .LASF9
     /tmp/cc0Eaf5F.s:2198   .debug_str:000000000000034a .LASF10
     /tmp/cc0Eaf5F.s:2226   .debug_str:00000000000004bb .LASF11
     /tmp/cc0Eaf5F.s:2104   .debug_str:00000000000000a8 .LASF12
     /tmp/cc0Eaf5F.s:2086   .debug_str:0000000000000024 .LASF13
     /tmp/cc0Eaf5F.s:2110   .debug_str:00000000000000eb .LASF14
     /tmp/cc0Eaf5F.s:2210   .debug_str:000000000000038a .LASF15
     /tmp/cc0Eaf5F.s:2120   .debug_str:0000000000000135 .LASF16
     /tmp/cc0Eaf5F.s:2146   .debug_str:0000000000000216 .LASF81
     /tmp/cc0Eaf5F.s:2196   .debug_str:0000000000000344 .LASF17
     /tmp/cc0Eaf5F.s:2192   .debug_str:0000000000000332 .LASF18
     /tmp/cc0Eaf5F.s:2152   .debug_str:0000000000000239 .LASF19
     /tmp/cc0Eaf5F.s:2218   .debug_str:00000000000003ca .LASF20
     /tmp/cc0Eaf5F.s:2112   .debug_str:00000000000000f7 .LASF82
     /tmp/cc0Eaf5F.s:2208   .debug_str:0000000000000385 .LASF21
     /tmp/cc0Eaf5F.s:2166   .debug_str:0000000000000282 .LASF23
     /tmp/cc0Eaf5F.s:2190   .debug_str:000000000000032d .LASF22
     /tmp/cc0Eaf5F.s:2206   .debug_str:000000000000036b .LASF24
     /tmp/cc0Eaf5F.s:2134   .debug_str:00000000000001b7 .LASF27
     /tmp/cc0Eaf5F.s:2108   .debug_str:00000000000000d0 .LASF29
     /tmp/cc0Eaf5F.s:2182   .debug_str:00000000000002f5 .LASF25
     /tmp/cc0Eaf5F.s:2148   .debug_str:0000000000000222 .LASF26
     /tmp/cc0Eaf5F.s:2174   .debug_str:00000000000002c4 .LASF28
     /tmp/cc0Eaf5F.s:2084   .debug_str:0000000000000011 .LASF30
     /tmp/cc0Eaf5F.s:2158   .debug_str:000000000000024e .LASF31
     /tmp/cc0Eaf5F.s:2088   .debug_str:0000000000000034 .LASF32
     /tmp/cc0Eaf5F.s:2098   .debug_str:000000000000008d .LASF33
     /tmp/cc0Eaf5F.s:2238   .debug_str:0000000000000524 .LASF39
     /tmp/cc0Eaf5F.s:2154   .debug_str:0000000000000241 .LASF34
     /tmp/cc0Eaf5F.s:2176   .debug_str:00000000000002cd .LASF35
     /tmp/cc0Eaf5F.s:2216   .debug_str:00000000000003bd .LASF36
     /tmp/cc0Eaf5F.s:2230   .debug_str:00000000000004e1 .LASF37
     /tmp/cc0Eaf5F.s:2244   .debug_str:000000000000054e .LASF38
     /tmp/cc0Eaf5F.s:2132   .debug_str:00000000000001af .LASF40
     /tmp/cc0Eaf5F.s:2082   .debug_str:0000000000000005 .LASF41
     /tmp/cc0Eaf5F.s:2240   .debug_str:000000000000052a .LASF42
     /tmp/cc0Eaf5F.s:2188   .debug_str:0000000000000321 .LASF43
     /tmp/cc0Eaf5F.s:2130   .debug_str:000000000000019f .LASF57
     /tmp/cc0Eaf5F.s:2222   .debug_str:00000000000003ea .LASF58
GAS LISTING /tmp/cc0Eaf5F.s 			page 14


     /tmp/cc0Eaf5F.s:2212   .debug_str:00000000000003a0 .LASF60
     /tmp/cc0Eaf5F.s:2100   .debug_str:0000000000000093 .LASF44
     /tmp/cc0Eaf5F.s:2180   .debug_str:00000000000002de .LASF45
     /tmp/cc0Eaf5F.s:2246   .debug_str:0000000000000553 .LASF46
     /tmp/cc0Eaf5F.s:2228   .debug_str:00000000000004ca .LASF47
     /tmp/cc0Eaf5F.s:2204   .debug_str:0000000000000366 .LASF48
     /tmp/cc0Eaf5F.s:2092   .debug_str:0000000000000052 .LASF50
     /tmp/cc0Eaf5F.s:2116   .debug_str:0000000000000116 .LASF49
     /tmp/cc0Eaf5F.s:2162   .debug_str:0000000000000258 .LASF51
     /tmp/cc0Eaf5F.s:2236   .debug_str:000000000000051c .LASF52
     /tmp/cc0Eaf5F.s:2234   .debug_str:00000000000004ff .LASF53
     /tmp/cc0Eaf5F.s:2200   .debug_str:0000000000000359 .LASF54
     /tmp/cc0Eaf5F.s:2122   .debug_str:000000000000014b .LASF55
     /tmp/cc0Eaf5F.s:2242   .debug_str:0000000000000537 .LASF56
     /tmp/cc0Eaf5F.s:2118   .debug_str:000000000000011d .LASF59
     /tmp/cc0Eaf5F.s:2144   .debug_str:000000000000020c .LASF61
     /tmp/cc0Eaf5F.s:2090   .debug_str:0000000000000043 .LASF62
     /tmp/cc0Eaf5F.s:2194   .debug_str:000000000000033a .LASF63
     /tmp/cc0Eaf5F.s:2080   .debug_str:0000000000000000 .LASF64
     /tmp/cc0Eaf5F.s:2140   .debug_str:00000000000001e5 .LASF65
     /tmp/cc0Eaf5F.s:2156   .debug_str:0000000000000246 .LASF66
     /tmp/cc0Eaf5F.s:2106   .debug_str:00000000000000b8 .LASF68
     /tmp/cc0Eaf5F.s:2114   .debug_str:000000000000010e .LASF67
     /tmp/cc0Eaf5F.s:2128   .debug_str:0000000000000187 .LASF69
     /tmp/cc0Eaf5F.s:2124   .debug_str:0000000000000168 .LASF70
     /tmp/cc0Eaf5F.s:2160   .debug_str:0000000000000253 .LASF71
     /tmp/cc0Eaf5F.s:2138   .debug_str:00000000000001e0 .LASF72
     /tmp/cc0Eaf5F.s:2126   .debug_str:000000000000016d .LASF83
     /tmp/cc0Eaf5F.s:321    .text:0000000000000190 .LFB13
     /tmp/cc0Eaf5F.s:362    .text:00000000000001c4 .LFE13
     /tmp/cc0Eaf5F.s:2202   .debug_str:0000000000000361 .LASF73
     /tmp/cc0Eaf5F.s:1913   .debug_loc:0000000000000000 .LLST6
     /tmp/cc0Eaf5F.s:227    .text:0000000000000120 .LFB12
     /tmp/cc0Eaf5F.s:315    .text:0000000000000190 .LFE12
     /tmp/cc0Eaf5F.s:1938   .debug_loc:0000000000000062 .LLST4
     /tmp/cc0Eaf5F.s:2064   .debug_ranges:0000000000000000 .Ldebug_ranges0
     /tmp/cc0Eaf5F.s:1971   .debug_loc:00000000000000ea .LLST5
     /tmp/cc0Eaf5F.s:288    .text:0000000000000174 .LVL19
     /tmp/cc0Eaf5F.s:137    .text:000000000000008c .LFB11
     /tmp/cc0Eaf5F.s:221    .text:0000000000000120 .LFE11
     /tmp/cc0Eaf5F.s:1982   .debug_loc:0000000000000120 .LLST3
     /tmp/cc0Eaf5F.s:195    .text:00000000000000f4 .LVL11
     /tmp/cc0Eaf5F.s:2094   .debug_str:000000000000006c .LASF74
     /tmp/cc0Eaf5F.s:2178   .debug_str:00000000000002d6 .LASF75
     /tmp/cc0Eaf5F.s:2096   .debug_str:0000000000000076 .LASF76
     /tmp/cc0Eaf5F.s:56     .text:000000000000003c .LFB9
     /tmp/cc0Eaf5F.s:121    .text:000000000000008c .LFE9
     /tmp/cc0Eaf5F.s:2011   .debug_loc:0000000000000195 .LLST0
     /tmp/cc0Eaf5F.s:96     .text:000000000000006c .LVL4
     /tmp/cc0Eaf5F.s:2025   .debug_loc:00000000000001ce .LLST1
     /tmp/cc0Eaf5F.s:84     .text:0000000000000058 .LBB6
     /tmp/cc0Eaf5F.s:100    .text:0000000000000070 .LBE6
     /tmp/cc0Eaf5F.s:2040   .debug_loc:0000000000000217 .LLST2
     /tmp/cc0Eaf5F.s:2220   .debug_str:00000000000003d3 .LASF77
     /tmp/cc0Eaf5F.s:10     .text:0000000000000000 .LFB6
     /tmp/cc0Eaf5F.s:48     .text:000000000000003c .LFE6
     /tmp/cc0Eaf5F.s:324    .text:0000000000000190 .LVL21
GAS LISTING /tmp/cc0Eaf5F.s 			page 15


     /tmp/cc0Eaf5F.s:344    .text:00000000000001b0 .LVL22
     /tmp/cc0Eaf5F.s:354    .text:00000000000001bc .LVL23
     /tmp/cc0Eaf5F.s:359    .text:00000000000001c0 .LVL24
     /tmp/cc0Eaf5F.s:230    .text:0000000000000120 .LVL13
     /tmp/cc0Eaf5F.s:242    .text:0000000000000134 .LVL14
     /tmp/cc0Eaf5F.s:249    .text:000000000000013c .LVL15
     /tmp/cc0Eaf5F.s:255    .text:0000000000000144 .LVL16
     /tmp/cc0Eaf5F.s:283    .text:0000000000000168 .LVL18
     /tmp/cc0Eaf5F.s:303    .text:0000000000000188 .LVL20
     /tmp/cc0Eaf5F.s:271    .text:0000000000000158 .LVL17
     /tmp/cc0Eaf5F.s:140    .text:000000000000008c .LVL7
     /tmp/cc0Eaf5F.s:157    .text:00000000000000a4 .LVL9
     /tmp/cc0Eaf5F.s:159    .text:00000000000000a8 .LVL10
     /tmp/cc0Eaf5F.s:208    .text:0000000000000108 .LVL12
     /tmp/cc0Eaf5F.s:61     .text:000000000000003c .LVL1
     /tmp/cc0Eaf5F.s:66     .text:0000000000000040 .LVL2
     /tmp/cc0Eaf5F.s:113    .text:0000000000000080 .LVL5
     /tmp/cc0Eaf5F.s:88     .text:000000000000005c .LVL3
     /tmp/cc0Eaf5F.s:117    .text:0000000000000088 .LVL6
     /tmp/cc0Eaf5F.s:378    .debug_info:0000000000000000 .Ldebug_info0
     /tmp/cc0Eaf5F.s:62     .text:000000000000003c .LBB5
     /tmp/cc0Eaf5F.s:70     .text:0000000000000044 .LBE5
     /tmp/cc0Eaf5F.s:83     .text:0000000000000058 .LBB7
     /tmp/cc0Eaf5F.s:104    .text:0000000000000074 .LBE7
     /tmp/cc0Eaf5F.s:269    .text:0000000000000158 .LBB9
     /tmp/cc0Eaf5F.s:289    .text:0000000000000174 .LBE9
     /tmp/cc0Eaf5F.s:307    .text:0000000000000188 .LBB10
     /tmp/cc0Eaf5F.s:312    .text:0000000000000190 .LBE10
     /tmp/cc0Eaf5F.s:124    .gcc_except_table:0000000000000000 .LLSDA9

UNDEFINED SYMBOLS
_ZN9Scheduler4pushEP3PCB
__gxx_personality_v0
_ZN3PCB7runningE
_ZN3PCB8dispatchEv
