GAS LISTING /tmp/ccSNmVrS.s 			page 1


   1              		.file	"handleSupervisorTrap.cpp"
   2              		.option pic
   3              		.option norelax
   4              		.text
   5              	.Ltext0:
   6              		.align	2
   7              		.globl	_Z8r_scausev
   9              	_Z8r_scausev:
  10              	.LFB0:
  11              		.file 1 "src/../h/asm_to_c.hpp"
   1:src/../h/asm_to_c.hpp **** #pragma once
   2:src/../h/asm_to_c.hpp **** #include "../lib/hw.h"
   3:src/../h/asm_to_c.hpp **** 
   4:src/../h/asm_to_c.hpp **** enum BitMaskSip
   5:src/../h/asm_to_c.hpp **** {
   6:src/../h/asm_to_c.hpp ****     SIP_SSIP = (1 << 1),
   7:src/../h/asm_to_c.hpp ****     SIP_STIP = (1 << 5),
   8:src/../h/asm_to_c.hpp ****     SIP_SEIP = (1 << 9),
   9:src/../h/asm_to_c.hpp **** };
  10:src/../h/asm_to_c.hpp **** 
  11:src/../h/asm_to_c.hpp **** uint64 r_scause(){
  12              		.loc 1 11 18
  13              		.cfi_startproc
  14 0000 130101FE 		addi	sp,sp,-32
  15              		.cfi_def_cfa_offset 32
  16 0004 233C8100 		sd	s0,24(sp)
  17              		.cfi_offset 8, -8
  18 0008 13040102 		addi	s0,sp,32
  19              		.cfi_def_cfa 8, 0
  12:src/../h/asm_to_c.hpp ****     uint64 volatile scause;
  20              		.loc 1 12 5
  13:src/../h/asm_to_c.hpp ****     __asm__ volatile ("csrr %[scause], scause" : [scause] "=r"(scause));
  21              		.loc 1 13 5
  22              		.loc 1 13 72 is_stmt 0
  23              	#APP
  24              	# 13 "src/../h/asm_to_c.hpp" 1
  14              	    return scause;
  25              		csrr a5, scause
  26              	# 0 "" 2
  27              	#NO_APP
  28 0010 2334F4FE 		sd	a5,-24(s0)
  29              		.loc 1 14 5 is_stmt 1
  30              		.loc 1 14 12 is_stmt 0
  31 0014 033584FE 		ld	a0,-24(s0)
  15:src/../h/asm_to_c.hpp **** }
  32              		.loc 1 15 1
  33 0018 03348101 		ld	s0,24(sp)
  34              		.cfi_restore 8
  35              		.cfi_def_cfa 2, 32
  36 001c 13010102 		addi	sp,sp,32
  37              		.cfi_def_cfa_offset 0
  38 0020 67800000 		jr	ra
  39              		.cfi_endproc
  40              	.LFE0:
  42              		.align	2
  43              		.globl	_Z8w_scausem
  45              	_Z8w_scausem:
GAS LISTING /tmp/ccSNmVrS.s 			page 2


  46              	.LFB1:
  16:src/../h/asm_to_c.hpp **** 
  17:src/../h/asm_to_c.hpp **** void w_scause(uint64 scause){
  47              		.loc 1 17 29 is_stmt 1
  48              		.cfi_startproc
  49              	.LVL0:
  50 0024 130101FF 		addi	sp,sp,-16
  51              		.cfi_def_cfa_offset 16
  52 0028 23348100 		sd	s0,8(sp)
  53              		.cfi_offset 8, -8
  54 002c 13040101 		addi	s0,sp,16
  55              		.cfi_def_cfa 8, 0
  18:src/../h/asm_to_c.hpp ****     __asm__ volatile ("csrw scause, %[scause]" : : [scause] "r"(scause));
  56              		.loc 1 18 5
  57              		.loc 1 18 73 is_stmt 0
  58              	#APP
  59              	# 18 "src/../h/asm_to_c.hpp" 1
  19              	}
  60              		csrw scause, a0
  61              	# 0 "" 2
  62              		.loc 1 19 1
  63              	#NO_APP
  64 0034 03348100 		ld	s0,8(sp)
  65              		.cfi_restore 8
  66              		.cfi_def_cfa 2, 16
  67 0038 13010101 		addi	sp,sp,16
  68              		.cfi_def_cfa_offset 0
  69 003c 67800000 		jr	ra
  70              		.cfi_endproc
  71              	.LFE1:
  73              		.align	2
  74              		.globl	_Z6r_sepcv
  76              	_Z6r_sepcv:
  77              	.LFB2:
  20:src/../h/asm_to_c.hpp **** 
  21:src/../h/asm_to_c.hpp **** uint64 r_sepc(){
  78              		.loc 1 21 16 is_stmt 1
  79              		.cfi_startproc
  80 0040 130101FE 		addi	sp,sp,-32
  81              		.cfi_def_cfa_offset 32
  82 0044 233C8100 		sd	s0,24(sp)
  83              		.cfi_offset 8, -8
  84 0048 13040102 		addi	s0,sp,32
  85              		.cfi_def_cfa 8, 0
  22:src/../h/asm_to_c.hpp ****     uint64 volatile sepc;
  86              		.loc 1 22 5
  23:src/../h/asm_to_c.hpp ****     __asm__ volatile ("csrr %[sepc], sepc" : [sepc] "=r"(sepc));
  87              		.loc 1 23 5
  88              		.loc 1 23 64 is_stmt 0
  89              	#APP
  90              	# 23 "src/../h/asm_to_c.hpp" 1
  24              	    return sepc;
  91              		csrr a5, sepc
  92              	# 0 "" 2
  93              	#NO_APP
  94 0050 2334F4FE 		sd	a5,-24(s0)
  95              		.loc 1 24 5 is_stmt 1
GAS LISTING /tmp/ccSNmVrS.s 			page 3


  96              		.loc 1 24 12 is_stmt 0
  97 0054 033584FE 		ld	a0,-24(s0)
  25:src/../h/asm_to_c.hpp **** }
  98              		.loc 1 25 1
  99 0058 03348101 		ld	s0,24(sp)
 100              		.cfi_restore 8
 101              		.cfi_def_cfa 2, 32
 102 005c 13010102 		addi	sp,sp,32
 103              		.cfi_def_cfa_offset 0
 104 0060 67800000 		jr	ra
 105              		.cfi_endproc
 106              	.LFE2:
 108              		.align	2
 109              		.globl	_Z6w_sepcm
 111              	_Z6w_sepcm:
 112              	.LFB3:
  26:src/../h/asm_to_c.hpp **** 
  27:src/../h/asm_to_c.hpp **** void w_sepc(uint64 sepc){
 113              		.loc 1 27 25 is_stmt 1
 114              		.cfi_startproc
 115              	.LVL1:
 116 0064 130101FF 		addi	sp,sp,-16
 117              		.cfi_def_cfa_offset 16
 118 0068 23348100 		sd	s0,8(sp)
 119              		.cfi_offset 8, -8
 120 006c 13040101 		addi	s0,sp,16
 121              		.cfi_def_cfa 8, 0
  28:src/../h/asm_to_c.hpp ****     __asm__ volatile ("csrw sepc, %[sepc]" : : [sepc] "r"(sepc));
 122              		.loc 1 28 5
 123              		.loc 1 28 65 is_stmt 0
 124              	#APP
 125              	# 28 "src/../h/asm_to_c.hpp" 1
  29              	}
 126              		csrw sepc, a0
 127              	# 0 "" 2
 128              		.loc 1 29 1
 129              	#NO_APP
 130 0074 03348100 		ld	s0,8(sp)
 131              		.cfi_restore 8
 132              		.cfi_def_cfa 2, 16
 133 0078 13010101 		addi	sp,sp,16
 134              		.cfi_def_cfa_offset 0
 135 007c 67800000 		jr	ra
 136              		.cfi_endproc
 137              	.LFE3:
 139              		.align	2
 140              		.globl	_Z7r_stvecv
 142              	_Z7r_stvecv:
 143              	.LFB4:
  30:src/../h/asm_to_c.hpp **** 
  31:src/../h/asm_to_c.hpp **** uint64 r_stvec(){
 144              		.loc 1 31 17 is_stmt 1
 145              		.cfi_startproc
 146 0080 130101FE 		addi	sp,sp,-32
 147              		.cfi_def_cfa_offset 32
 148 0084 233C8100 		sd	s0,24(sp)
 149              		.cfi_offset 8, -8
GAS LISTING /tmp/ccSNmVrS.s 			page 4


 150 0088 13040102 		addi	s0,sp,32
 151              		.cfi_def_cfa 8, 0
  32:src/../h/asm_to_c.hpp ****     uint64 volatile stvec;
 152              		.loc 1 32 5
  33:src/../h/asm_to_c.hpp ****     __asm__ volatile ("csrr %[stvec], stvec" : [stvec] "=r"(stvec));
 153              		.loc 1 33 5
 154              		.loc 1 33 68 is_stmt 0
 155              	#APP
 156              	# 33 "src/../h/asm_to_c.hpp" 1
  34              	    return stvec;
 157              		csrr a5, stvec
 158              	# 0 "" 2
 159              	#NO_APP
 160 0090 2334F4FE 		sd	a5,-24(s0)
 161              		.loc 1 34 5 is_stmt 1
 162              		.loc 1 34 12 is_stmt 0
 163 0094 033584FE 		ld	a0,-24(s0)
  35:src/../h/asm_to_c.hpp **** }
 164              		.loc 1 35 1
 165 0098 03348101 		ld	s0,24(sp)
 166              		.cfi_restore 8
 167              		.cfi_def_cfa 2, 32
 168 009c 13010102 		addi	sp,sp,32
 169              		.cfi_def_cfa_offset 0
 170 00a0 67800000 		jr	ra
 171              		.cfi_endproc
 172              	.LFE4:
 174              		.align	2
 175              		.globl	_Z7w_stvecm
 177              	_Z7w_stvecm:
 178              	.LFB5:
  36:src/../h/asm_to_c.hpp **** 
  37:src/../h/asm_to_c.hpp **** void w_stvec(uint64 stvec){
 179              		.loc 1 37 27 is_stmt 1
 180              		.cfi_startproc
 181              	.LVL2:
 182 00a4 130101FF 		addi	sp,sp,-16
 183              		.cfi_def_cfa_offset 16
 184 00a8 23348100 		sd	s0,8(sp)
 185              		.cfi_offset 8, -8
 186 00ac 13040101 		addi	s0,sp,16
 187              		.cfi_def_cfa 8, 0
  38:src/../h/asm_to_c.hpp ****     __asm__ volatile ("csrw stvec, %[stvec]" : : [stvec] "r"(stvec));
 188              		.loc 1 38 5
 189              		.loc 1 38 69 is_stmt 0
 190              	#APP
 191              	# 38 "src/../h/asm_to_c.hpp" 1
  39              	}
 192              		csrw stvec, a0
 193              	# 0 "" 2
 194              		.loc 1 39 1
 195              	#NO_APP
 196 00b4 03348100 		ld	s0,8(sp)
 197              		.cfi_restore 8
 198              		.cfi_def_cfa 2, 16
 199 00b8 13010101 		addi	sp,sp,16
 200              		.cfi_def_cfa_offset 0
GAS LISTING /tmp/ccSNmVrS.s 			page 5


 201 00bc 67800000 		jr	ra
 202              		.cfi_endproc
 203              	.LFE5:
 205              		.align	2
 206              		.globl	_Z7r_stvalv
 208              	_Z7r_stvalv:
 209              	.LFB6:
  40:src/../h/asm_to_c.hpp **** 
  41:src/../h/asm_to_c.hpp **** uint64 r_stval(){
 210              		.loc 1 41 17 is_stmt 1
 211              		.cfi_startproc
 212 00c0 130101FE 		addi	sp,sp,-32
 213              		.cfi_def_cfa_offset 32
 214 00c4 233C8100 		sd	s0,24(sp)
 215              		.cfi_offset 8, -8
 216 00c8 13040102 		addi	s0,sp,32
 217              		.cfi_def_cfa 8, 0
  42:src/../h/asm_to_c.hpp ****     uint64 volatile stval;
 218              		.loc 1 42 5
  43:src/../h/asm_to_c.hpp ****     __asm__ volatile ("csrr %[stval], stval" : [stval] "=r"(stval));
 219              		.loc 1 43 5
 220              		.loc 1 43 68 is_stmt 0
 221              	#APP
 222              	# 43 "src/../h/asm_to_c.hpp" 1
  44              	    return stval;
 223              		csrr a5, stval
 224              	# 0 "" 2
 225              	#NO_APP
 226 00d0 2334F4FE 		sd	a5,-24(s0)
 227              		.loc 1 44 5 is_stmt 1
 228              		.loc 1 44 12 is_stmt 0
 229 00d4 033584FE 		ld	a0,-24(s0)
  45:src/../h/asm_to_c.hpp **** }
 230              		.loc 1 45 1
 231 00d8 03348101 		ld	s0,24(sp)
 232              		.cfi_restore 8
 233              		.cfi_def_cfa 2, 32
 234 00dc 13010102 		addi	sp,sp,32
 235              		.cfi_def_cfa_offset 0
 236 00e0 67800000 		jr	ra
 237              		.cfi_endproc
 238              	.LFE6:
 240              		.align	2
 241              		.globl	_Z7w_stvalm
 243              	_Z7w_stvalm:
 244              	.LFB7:
  46:src/../h/asm_to_c.hpp **** 
  47:src/../h/asm_to_c.hpp **** void w_stval(uint64 stval){
 245              		.loc 1 47 27 is_stmt 1
 246              		.cfi_startproc
 247              	.LVL3:
 248 00e4 130101FF 		addi	sp,sp,-16
 249              		.cfi_def_cfa_offset 16
 250 00e8 23348100 		sd	s0,8(sp)
 251              		.cfi_offset 8, -8
 252 00ec 13040101 		addi	s0,sp,16
 253              		.cfi_def_cfa 8, 0
GAS LISTING /tmp/ccSNmVrS.s 			page 6


  48:src/../h/asm_to_c.hpp ****     __asm__ volatile ("csrw stval, %[stval]" : : [stval] "r"(stval));
 254              		.loc 1 48 5
 255              		.loc 1 48 69 is_stmt 0
 256              	#APP
 257              	# 48 "src/../h/asm_to_c.hpp" 1
  49              	}
 258              		csrw stval, a0
 259              	# 0 "" 2
 260              		.loc 1 49 1
 261              	#NO_APP
 262 00f4 03348100 		ld	s0,8(sp)
 263              		.cfi_restore 8
 264              		.cfi_def_cfa 2, 16
 265 00f8 13010101 		addi	sp,sp,16
 266              		.cfi_def_cfa_offset 0
 267 00fc 67800000 		jr	ra
 268              		.cfi_endproc
 269              	.LFE7:
 271              		.align	2
 272              		.globl	_Z6ms_sipm
 274              	_Z6ms_sipm:
 275              	.LFB8:
  50:src/../h/asm_to_c.hpp **** 
  51:src/../h/asm_to_c.hpp **** void ms_sip(uint64 mask){
 276              		.loc 1 51 25 is_stmt 1
 277              		.cfi_startproc
 278              	.LVL4:
 279 0100 130101FF 		addi	sp,sp,-16
 280              		.cfi_def_cfa_offset 16
 281 0104 23348100 		sd	s0,8(sp)
 282              		.cfi_offset 8, -8
 283 0108 13040101 		addi	s0,sp,16
 284              		.cfi_def_cfa 8, 0
  52:src/../h/asm_to_c.hpp ****     __asm__ volatile ("csrs sip, %[mask]" : : [mask] "r"(mask));
 285              		.loc 1 52 5
 286              		.loc 1 52 64 is_stmt 0
 287              	#APP
 288              	# 52 "src/../h/asm_to_c.hpp" 1
  53              	}
 289              		csrs sip, a0
 290              	# 0 "" 2
 291              		.loc 1 53 1
 292              	#NO_APP
 293 0110 03348100 		ld	s0,8(sp)
 294              		.cfi_restore 8
 295              		.cfi_def_cfa 2, 16
 296 0114 13010101 		addi	sp,sp,16
 297              		.cfi_def_cfa_offset 0
 298 0118 67800000 		jr	ra
 299              		.cfi_endproc
 300              	.LFE8:
 302              		.align	2
 303              		.globl	_Z6mc_sipm
 305              	_Z6mc_sipm:
 306              	.LFB9:
  54:src/../h/asm_to_c.hpp **** 
  55:src/../h/asm_to_c.hpp **** void mc_sip(uint64 mask){
GAS LISTING /tmp/ccSNmVrS.s 			page 7


 307              		.loc 1 55 25 is_stmt 1
 308              		.cfi_startproc
 309              	.LVL5:
 310 011c 130101FF 		addi	sp,sp,-16
 311              		.cfi_def_cfa_offset 16
 312 0120 23348100 		sd	s0,8(sp)
 313              		.cfi_offset 8, -8
 314 0124 13040101 		addi	s0,sp,16
 315              		.cfi_def_cfa 8, 0
  56:src/../h/asm_to_c.hpp ****     __asm__ volatile ("csrc sip, %[mask]" : : [mask] "r"(mask));
 316              		.loc 1 56 5
 317              		.loc 1 56 64 is_stmt 0
 318              	#APP
 319              	# 56 "src/../h/asm_to_c.hpp" 1
  57              	}
 320              		csrc sip, a0
 321              	# 0 "" 2
 322              		.loc 1 57 1
 323              	#NO_APP
 324 012c 03348100 		ld	s0,8(sp)
 325              		.cfi_restore 8
 326              		.cfi_def_cfa 2, 16
 327 0130 13010101 		addi	sp,sp,16
 328              		.cfi_def_cfa_offset 0
 329 0134 67800000 		jr	ra
 330              		.cfi_endproc
 331              	.LFE9:
 333              		.align	2
 334              		.globl	_Z5r_sipv
 336              	_Z5r_sipv:
 337              	.LFB10:
  58:src/../h/asm_to_c.hpp **** 
  59:src/../h/asm_to_c.hpp **** uint64 r_sip(){
 338              		.loc 1 59 15 is_stmt 1
 339              		.cfi_startproc
 340 0138 130101FE 		addi	sp,sp,-32
 341              		.cfi_def_cfa_offset 32
 342 013c 233C8100 		sd	s0,24(sp)
 343              		.cfi_offset 8, -8
 344 0140 13040102 		addi	s0,sp,32
 345              		.cfi_def_cfa 8, 0
  60:src/../h/asm_to_c.hpp ****     uint64 volatile sip;
 346              		.loc 1 60 5
  61:src/../h/asm_to_c.hpp ****     __asm__ volatile ("csrr %[sip], sip" : [sip] "=r"(sip));
 347              		.loc 1 61 5
 348              		.loc 1 61 60 is_stmt 0
 349              	#APP
 350              	# 61 "src/../h/asm_to_c.hpp" 1
  62              	    return sip;
 351              		csrr a5, sip
 352              	# 0 "" 2
 353              	#NO_APP
 354 0148 2334F4FE 		sd	a5,-24(s0)
 355              		.loc 1 62 5 is_stmt 1
 356              		.loc 1 62 12 is_stmt 0
 357 014c 033584FE 		ld	a0,-24(s0)
  63:src/../h/asm_to_c.hpp **** }
GAS LISTING /tmp/ccSNmVrS.s 			page 8


 358              		.loc 1 63 1
 359 0150 03348101 		ld	s0,24(sp)
 360              		.cfi_restore 8
 361              		.cfi_def_cfa 2, 32
 362 0154 13010102 		addi	sp,sp,32
 363              		.cfi_def_cfa_offset 0
 364 0158 67800000 		jr	ra
 365              		.cfi_endproc
 366              	.LFE10:
 368              		.align	2
 369              		.globl	_Z5w_sipm
 371              	_Z5w_sipm:
 372              	.LFB11:
  64:src/../h/asm_to_c.hpp **** 
  65:src/../h/asm_to_c.hpp **** void w_sip(uint64 sip){
 373              		.loc 1 65 23 is_stmt 1
 374              		.cfi_startproc
 375              	.LVL6:
 376 015c 130101FF 		addi	sp,sp,-16
 377              		.cfi_def_cfa_offset 16
 378 0160 23348100 		sd	s0,8(sp)
 379              		.cfi_offset 8, -8
 380 0164 13040101 		addi	s0,sp,16
 381              		.cfi_def_cfa 8, 0
  66:src/../h/asm_to_c.hpp ****     __asm__ volatile ("csrw sip, %[sip]" : : [sip] "r"(sip));
 382              		.loc 1 66 5
 383              		.loc 1 66 61 is_stmt 0
 384              	#APP
 385              	# 66 "src/../h/asm_to_c.hpp" 1
  67              	}
 386              		csrw sip, a0
 387              	# 0 "" 2
 388              		.loc 1 67 1
 389              	#NO_APP
 390 016c 03348100 		ld	s0,8(sp)
 391              		.cfi_restore 8
 392              		.cfi_def_cfa 2, 16
 393 0170 13010101 		addi	sp,sp,16
 394              		.cfi_def_cfa_offset 0
 395 0174 67800000 		jr	ra
 396              		.cfi_endproc
 397              	.LFE11:
 399              		.align	2
 400              		.globl	_Z10ms_sstatusm
 402              	_Z10ms_sstatusm:
 403              	.LFB12:
  68:src/../h/asm_to_c.hpp **** 
  69:src/../h/asm_to_c.hpp **** void ms_sstatus(uint64 mask){
 404              		.loc 1 69 29 is_stmt 1
 405              		.cfi_startproc
 406              	.LVL7:
 407 0178 130101FF 		addi	sp,sp,-16
 408              		.cfi_def_cfa_offset 16
 409 017c 23348100 		sd	s0,8(sp)
 410              		.cfi_offset 8, -8
 411 0180 13040101 		addi	s0,sp,16
 412              		.cfi_def_cfa 8, 0
GAS LISTING /tmp/ccSNmVrS.s 			page 9


  70:src/../h/asm_to_c.hpp ****     __asm__ volatile ("csrs sstatus, %[mask]" : : [mask] "r"(mask));
 413              		.loc 1 70 5
 414              		.loc 1 70 68 is_stmt 0
 415              	#APP
 416              	# 70 "src/../h/asm_to_c.hpp" 1
  71              	}
 417              		csrs sstatus, a0
 418              	# 0 "" 2
 419              		.loc 1 71 1
 420              	#NO_APP
 421 0188 03348100 		ld	s0,8(sp)
 422              		.cfi_restore 8
 423              		.cfi_def_cfa 2, 16
 424 018c 13010101 		addi	sp,sp,16
 425              		.cfi_def_cfa_offset 0
 426 0190 67800000 		jr	ra
 427              		.cfi_endproc
 428              	.LFE12:
 430              		.align	2
 431              		.globl	_Z10mc_sstatusm
 433              	_Z10mc_sstatusm:
 434              	.LFB13:
  72:src/../h/asm_to_c.hpp **** 
  73:src/../h/asm_to_c.hpp **** void mc_sstatus(uint64 mask){
 435              		.loc 1 73 29 is_stmt 1
 436              		.cfi_startproc
 437              	.LVL8:
 438 0194 130101FF 		addi	sp,sp,-16
 439              		.cfi_def_cfa_offset 16
 440 0198 23348100 		sd	s0,8(sp)
 441              		.cfi_offset 8, -8
 442 019c 13040101 		addi	s0,sp,16
 443              		.cfi_def_cfa 8, 0
  74:src/../h/asm_to_c.hpp ****     __asm__ volatile ("csrc sstatus, %[mask]" : : [mask] "r"(mask));
 444              		.loc 1 74 5
 445              		.loc 1 74 68 is_stmt 0
 446              	#APP
 447              	# 74 "src/../h/asm_to_c.hpp" 1
  75              	}
 448              		csrc sstatus, a0
 449              	# 0 "" 2
 450              		.loc 1 75 1
 451              	#NO_APP
 452 01a4 03348100 		ld	s0,8(sp)
 453              		.cfi_restore 8
 454              		.cfi_def_cfa 2, 16
 455 01a8 13010101 		addi	sp,sp,16
 456              		.cfi_def_cfa_offset 0
 457 01ac 67800000 		jr	ra
 458              		.cfi_endproc
 459              	.LFE13:
 461              		.align	2
 462              		.globl	_Z9r_sstatusv
 464              	_Z9r_sstatusv:
 465              	.LFB14:
  76:src/../h/asm_to_c.hpp **** 
  77:src/../h/asm_to_c.hpp **** uint64 r_sstatus(){
GAS LISTING /tmp/ccSNmVrS.s 			page 10


 466              		.loc 1 77 19 is_stmt 1
 467              		.cfi_startproc
 468 01b0 130101FE 		addi	sp,sp,-32
 469              		.cfi_def_cfa_offset 32
 470 01b4 233C8100 		sd	s0,24(sp)
 471              		.cfi_offset 8, -8
 472 01b8 13040102 		addi	s0,sp,32
 473              		.cfi_def_cfa 8, 0
  78:src/../h/asm_to_c.hpp ****     uint64 volatile sstatus;
 474              		.loc 1 78 5
  79:src/../h/asm_to_c.hpp ****     __asm__ volatile ("csrr %[sstatus], sstatus" : [sstatus] "=r"(sstatus));
 475              		.loc 1 79 5
 476              		.loc 1 79 76 is_stmt 0
 477              	#APP
 478              	# 79 "src/../h/asm_to_c.hpp" 1
  80              	    return sstatus;
 479              		csrr a5, sstatus
 480              	# 0 "" 2
 481              	#NO_APP
 482 01c0 2334F4FE 		sd	a5,-24(s0)
 483              		.loc 1 80 5 is_stmt 1
 484              		.loc 1 80 12 is_stmt 0
 485 01c4 033584FE 		ld	a0,-24(s0)
  81:src/../h/asm_to_c.hpp **** }
 486              		.loc 1 81 1
 487 01c8 03348101 		ld	s0,24(sp)
 488              		.cfi_restore 8
 489              		.cfi_def_cfa 2, 32
 490 01cc 13010102 		addi	sp,sp,32
 491              		.cfi_def_cfa_offset 0
 492 01d0 67800000 		jr	ra
 493              		.cfi_endproc
 494              	.LFE14:
 496              		.align	2
 497              		.globl	_Z9w_sstatusm
 499              	_Z9w_sstatusm:
 500              	.LFB15:
  82:src/../h/asm_to_c.hpp **** 
  83:src/../h/asm_to_c.hpp **** void w_sstatus(uint64 sstatus){
 501              		.loc 1 83 31 is_stmt 1
 502              		.cfi_startproc
 503              	.LVL9:
 504 01d4 130101FF 		addi	sp,sp,-16
 505              		.cfi_def_cfa_offset 16
 506 01d8 23348100 		sd	s0,8(sp)
 507              		.cfi_offset 8, -8
 508 01dc 13040101 		addi	s0,sp,16
 509              		.cfi_def_cfa 8, 0
  84:src/../h/asm_to_c.hpp ****     __asm__ volatile ("csrw sstatus, %[sstatus]" : : [sstatus] "r"(sstatus));
 510              		.loc 1 84 5
 511              		.loc 1 84 77 is_stmt 0
 512              	#APP
 513              	# 84 "src/../h/asm_to_c.hpp" 1
  85              	}
 514              		csrw sstatus, a0
 515              	# 0 "" 2
 516              		.loc 1 85 1
GAS LISTING /tmp/ccSNmVrS.s 			page 11


 517              	#NO_APP
 518 01e4 03348100 		ld	s0,8(sp)
 519              		.cfi_restore 8
 520              		.cfi_def_cfa 2, 16
 521 01e8 13010101 		addi	sp,sp,16
 522              		.cfi_def_cfa_offset 0
 523 01ec 67800000 		jr	ra
 524              		.cfi_endproc
 525              	.LFE15:
 527              		.align	2
 528              		.globl	_Z6ms_siem
 530              	_Z6ms_siem:
 531              	.LFB16:
  86:src/../h/asm_to_c.hpp **** 
  87:src/../h/asm_to_c.hpp **** void ms_sie(uint64 mask){
 532              		.loc 1 87 25 is_stmt 1
 533              		.cfi_startproc
 534              	.LVL10:
 535 01f0 130101FF 		addi	sp,sp,-16
 536              		.cfi_def_cfa_offset 16
 537 01f4 23348100 		sd	s0,8(sp)
 538              		.cfi_offset 8, -8
 539 01f8 13040101 		addi	s0,sp,16
 540              		.cfi_def_cfa 8, 0
  88:src/../h/asm_to_c.hpp ****     __asm__ volatile ("csrs sie, %[mask]" : : [mask] "r"(mask));
 541              		.loc 1 88 5
 542              		.loc 1 88 64 is_stmt 0
 543              	#APP
 544              	# 88 "src/../h/asm_to_c.hpp" 1
  89              	}
 545              		csrs sie, a0
 546              	# 0 "" 2
 547              		.loc 1 89 1
 548              	#NO_APP
 549 0200 03348100 		ld	s0,8(sp)
 550              		.cfi_restore 8
 551              		.cfi_def_cfa 2, 16
 552 0204 13010101 		addi	sp,sp,16
 553              		.cfi_def_cfa_offset 0
 554 0208 67800000 		jr	ra
 555              		.cfi_endproc
 556              	.LFE16:
 558              		.align	2
 559              		.globl	_Z6mc_siem
 561              	_Z6mc_siem:
 562              	.LFB17:
  90:src/../h/asm_to_c.hpp **** 
  91:src/../h/asm_to_c.hpp **** void mc_sie(uint64 mask){
 563              		.loc 1 91 25 is_stmt 1
 564              		.cfi_startproc
 565              	.LVL11:
 566 020c 130101FF 		addi	sp,sp,-16
 567              		.cfi_def_cfa_offset 16
 568 0210 23348100 		sd	s0,8(sp)
 569              		.cfi_offset 8, -8
 570 0214 13040101 		addi	s0,sp,16
 571              		.cfi_def_cfa 8, 0
GAS LISTING /tmp/ccSNmVrS.s 			page 12


  92:src/../h/asm_to_c.hpp ****     __asm__ volatile ("csrc sie, %[mask]" : : [mask] "r"(mask));
 572              		.loc 1 92 5
 573              		.loc 1 92 64 is_stmt 0
 574              	#APP
 575              	# 92 "src/../h/asm_to_c.hpp" 1
  93              	}
 576              		csrc sie, a0
 577              	# 0 "" 2
 578              		.loc 1 93 1
 579              	#NO_APP
 580 021c 03348100 		ld	s0,8(sp)
 581              		.cfi_restore 8
 582              		.cfi_def_cfa 2, 16
 583 0220 13010101 		addi	sp,sp,16
 584              		.cfi_def_cfa_offset 0
 585 0224 67800000 		jr	ra
 586              		.cfi_endproc
 587              	.LFE17:
 589              		.align	2
 590              		.globl	_Z4r_a0v
 592              	_Z4r_a0v:
 593              	.LFB18:
  94:src/../h/asm_to_c.hpp **** 
  95:src/../h/asm_to_c.hpp **** uint64 r_a0(){
 594              		.loc 1 95 14 is_stmt 1
 595              		.cfi_startproc
 596 0228 130101FE 		addi	sp,sp,-32
 597              		.cfi_def_cfa_offset 32
 598 022c 233C8100 		sd	s0,24(sp)
 599              		.cfi_offset 8, -8
 600 0230 13040102 		addi	s0,sp,32
 601              		.cfi_def_cfa 8, 0
  96:src/../h/asm_to_c.hpp ****     uint64 volatile a0;
 602              		.loc 1 96 5
  97:src/../h/asm_to_c.hpp ****     __asm__ volatile ("mv %0, a0" : "=r"(a0));
 603              		.loc 1 97 5
 604              		.loc 1 97 46 is_stmt 0
 605              	#APP
 606              	# 97 "src/../h/asm_to_c.hpp" 1
  98              	    return a0;
 607              		mv a5, a0
 608              	# 0 "" 2
 609              	#NO_APP
 610 0238 2334F4FE 		sd	a5,-24(s0)
 611              		.loc 1 98 5 is_stmt 1
 612              		.loc 1 98 12 is_stmt 0
 613 023c 033584FE 		ld	a0,-24(s0)
  99:src/../h/asm_to_c.hpp **** }
 614              		.loc 1 99 1
 615 0240 03348101 		ld	s0,24(sp)
 616              		.cfi_restore 8
 617              		.cfi_def_cfa 2, 32
 618 0244 13010102 		addi	sp,sp,32
 619              		.cfi_def_cfa_offset 0
 620 0248 67800000 		jr	ra
 621              		.cfi_endproc
 622              	.LFE18:
GAS LISTING /tmp/ccSNmVrS.s 			page 13


 624              		.align	2
 625              		.globl	_Z4w_a0m
 627              	_Z4w_a0m:
 628              	.LFB19:
 100:src/../h/asm_to_c.hpp **** 
 101:src/../h/asm_to_c.hpp **** 
 102:src/../h/asm_to_c.hpp **** void w_a0(uint64 writeValue) {
 629              		.loc 1 102 30 is_stmt 1
 630              		.cfi_startproc
 631              	.LVL12:
 632 024c 130101FF 		addi	sp,sp,-16
 633              		.cfi_def_cfa_offset 16
 634 0250 23348100 		sd	s0,8(sp)
 635              		.cfi_offset 8, -8
 636 0254 13040101 		addi	s0,sp,16
 637              		.cfi_def_cfa 8, 0
 103:src/../h/asm_to_c.hpp ****     __asm__ volatile ("mv a0, %0" : : "r"(writeValue));
 638              		.loc 1 103 5
 639              		.loc 1 103 55 is_stmt 0
 640              	#APP
 641              	# 103 "src/../h/asm_to_c.hpp" 1
 104              	}...
 642              		mv a0, a0
 643              	# 0 "" 2
 644              		.loc 1 104 1
 645              	#NO_APP
 646 025c 03348100 		ld	s0,8(sp)
 647              		.cfi_restore 8
 648              		.cfi_def_cfa 2, 16
 649 0260 13010101 		addi	sp,sp,16
 650              		.cfi_def_cfa_offset 0
 651 0264 67800000 		jr	ra
 652              		.cfi_endproc
 653              	.LFE19:
 655              		.section	.rodata.str1.8,"aMS",@progbits,1
 656              		.align	3
 657              	.LC0:
 658 0000 4552524F 		.string	"ERROR : unexpected trap cause\nscause: "
 658      52203A20 
 658      756E6578 
 658      70656374 
 658      65642074 
 659 0027 00       		.align	3
 660              	.LC1:
 661 0028 0A00     		.string	"\n"
 662              		.text
 663              		.align	2
 664              		.globl	handleSupervisorTrap
 666              	handleSupervisorTrap:
 667              	.LFB25:
 668              		.file 2 "src/handleSupervisorTrap.cpp"
   1:src/handleSupervisorTrap.cpp **** #include "../h/syscall_c.hpp"
   2:src/handleSupervisorTrap.cpp **** #include "../h/asm_to_c.hpp"
   3:src/handleSupervisorTrap.cpp **** #include "../h/PCB.hpp"
   4:src/handleSupervisorTrap.cpp **** #include "../h/BackSemaphore.hpp"
   5:src/handleSupervisorTrap.cpp **** #include "../lib/console.h"
   6:src/handleSupervisorTrap.cpp **** #include "../test/printing.hpp"
GAS LISTING /tmp/ccSNmVrS.s 			page 14


   7:src/handleSupervisorTrap.cpp **** 
   8:src/handleSupervisorTrap.cpp **** extern uint64 timerCounter;
   9:src/handleSupervisorTrap.cpp **** extern uint64 is_console;
  10:src/handleSupervisorTrap.cpp **** 
  11:src/handleSupervisorTrap.cpp **** extern "C" void handleSupervisorTrap(){
 669              		.loc 2 11 39 is_stmt 1
 670              		.cfi_startproc
 671              		.cfi_personality 0x9b,DW.ref.__gxx_personality_v0
 672              		.cfi_lsda 0x1b,.LLSDA25
 673 0268 130101FB 		addi	sp,sp,-80
 674              		.cfi_def_cfa_offset 80
 675 026c 23341104 		sd	ra,72(sp)
 676 0270 23308104 		sd	s0,64(sp)
 677 0274 233C9102 		sd	s1,56(sp)
 678 0278 23382103 		sd	s2,48(sp)
 679 027c 23343103 		sd	s3,40(sp)
 680 0280 23304103 		sd	s4,32(sp)
 681              		.cfi_offset 1, -8
 682              		.cfi_offset 8, -16
 683              		.cfi_offset 9, -24
 684              		.cfi_offset 18, -32
 685              		.cfi_offset 19, -40
 686              		.cfi_offset 20, -48
 687 0284 13040105 		addi	s0,sp,80
 688              		.cfi_def_cfa 8, 0
  12:src/handleSupervisorTrap.cpp ****     uint64 volatile scause;
 689              		.loc 2 12 5
  13:src/handleSupervisorTrap.cpp ****     __asm__ volatile ("csrr %[scause], scause" : [scause] "=r"(scause));
 690              		.loc 2 13 5
 691              		.loc 2 13 72 is_stmt 0
 692              	#APP
 693              	# 13 "src/handleSupervisorTrap.cpp" 1
  14              	    if (scause == 0x0000000000000008UL || scause == 0x0000000000000009UL) {
 694              		csrr a5, scause
 695              	# 0 "" 2
 696              	#NO_APP
 697 028c 2334F4FC 		sd	a5,-56(s0)
 698              		.loc 2 14 5 is_stmt 1
 699              	.LBB38:
 700              		.loc 2 14 16 is_stmt 0
 701 0290 033784FC 		ld	a4,-56(s0)
 702              		.loc 2 14 40
 703 0294 93078000 		li	a5,8
 704 0298 630AF706 		beq	a4,a5,.L42
 705              		.loc 2 14 50 discriminator 2
 706 029c 033784FC 		ld	a4,-56(s0)
 707              		.loc 2 14 40 discriminator 2
 708 02a0 93079000 		li	a5,9
 709 02a4 6304F706 		beq	a4,a5,.L42
 710              	.LBE38:
  15:src/handleSupervisorTrap.cpp ****         uint64 volatile f = r_a0();
  16:src/handleSupervisorTrap.cpp ****         uint64 volatile sepc = r_sepc() + 4;
  17:src/handleSupervisorTrap.cpp ****         uint64 volatile sstatus = r_sstatus();
  18:src/handleSupervisorTrap.cpp **** 
  19:src/handleSupervisorTrap.cpp **** 
  20:src/handleSupervisorTrap.cpp ****         switch (f) {
  21:src/handleSupervisorTrap.cpp ****             case MEM_ALLOC: {
GAS LISTING /tmp/ccSNmVrS.s 			page 15


  22:src/handleSupervisorTrap.cpp ****                 size_t a1 = 0;
  23:src/handleSupervisorTrap.cpp ****                 __asm__ ("mv %[a1], a1" : [a1] "=r"(a1));
  24:src/handleSupervisorTrap.cpp ****                 void* addr = MemoryAllocator::allocate(a1);
  25:src/handleSupervisorTrap.cpp ****                 __asm__ ("mv a0, %0" : : "r"(addr));
  26:src/handleSupervisorTrap.cpp ****                 break;
  27:src/handleSupervisorTrap.cpp ****             }
  28:src/handleSupervisorTrap.cpp ****             case MEM_FREE: {
  29:src/handleSupervisorTrap.cpp ****                 void* a2;
  30:src/handleSupervisorTrap.cpp ****                 __asm__ ("mv %[a2], a1" : [a2] "=r"(a2));
  31:src/handleSupervisorTrap.cpp ****                 int ret = MemoryAllocator::deallocate(a2);
  32:src/handleSupervisorTrap.cpp ****                 __asm__ ("mv a0, %0" : : "r"(ret));
  33:src/handleSupervisorTrap.cpp ****                 break;
  34:src/handleSupervisorTrap.cpp ****             }
  35:src/handleSupervisorTrap.cpp ****             case MEM_GET_FREE_SPACE: {
  36:src/handleSupervisorTrap.cpp ****                 size_t ret = MemoryAllocator::get_free_space();
  37:src/handleSupervisorTrap.cpp ****                 __asm__ ("mv a0, %0" : : "r"(ret));
  38:src/handleSupervisorTrap.cpp ****                 break;
  39:src/handleSupervisorTrap.cpp ****             }
  40:src/handleSupervisorTrap.cpp ****             case MEM_GET_LARGEST_FREE_BLOCK: {
  41:src/handleSupervisorTrap.cpp ****                 size_t ret = MemoryAllocator::get_largest_free_block();
  42:src/handleSupervisorTrap.cpp ****                 __asm__ ("mv a0, %0" : : "r"(ret));
  43:src/handleSupervisorTrap.cpp ****                 break;
  44:src/handleSupervisorTrap.cpp ****             }
  45:src/handleSupervisorTrap.cpp ****             case THREAD_CREATE: {
  46:src/handleSupervisorTrap.cpp ****                 void (*body)(void*) = nullptr;
  47:src/handleSupervisorTrap.cpp ****                 void* arg;
  48:src/handleSupervisorTrap.cpp ****                 void* stack;
  49:src/handleSupervisorTrap.cpp ****                 __asm__ ("mv %[p], a1" : [p] "=r"(body));
  50:src/handleSupervisorTrap.cpp ****                 __asm__ ("mv %[p], a2" : [p] "=r"(arg));
  51:src/handleSupervisorTrap.cpp ****                 __asm__ ("mv %[p], a3" : [p] "=r"(stack));
  52:src/handleSupervisorTrap.cpp ****                 PCB *pcb = new PCB(body, arg, stack);
  53:src/handleSupervisorTrap.cpp ****                 __asm__ ("mv a0, %[p]"::[p]"r"(pcb));
  54:src/handleSupervisorTrap.cpp ****                 break;
  55:src/handleSupervisorTrap.cpp ****             }
  56:src/handleSupervisorTrap.cpp ****             case THREAD_EXIT: {
  57:src/handleSupervisorTrap.cpp ****                 PCB::exit();
  58:src/handleSupervisorTrap.cpp ****                 int ret = 0;
  59:src/handleSupervisorTrap.cpp ****                 __asm__ ("mv a0, %0" : : "r"(ret));
  60:src/handleSupervisorTrap.cpp ****                 break;
  61:src/handleSupervisorTrap.cpp ****             }
  62:src/handleSupervisorTrap.cpp ****             case THREAD_DISPATCH: {
  63:src/handleSupervisorTrap.cpp ****                 PCB::dispatch();
  64:src/handleSupervisorTrap.cpp ****                 int ret = 0;
  65:src/handleSupervisorTrap.cpp ****                 __asm__ ("mv a0, %0" : : "r"(ret));
  66:src/handleSupervisorTrap.cpp ****                 break;
  67:src/handleSupervisorTrap.cpp ****             }
  68:src/handleSupervisorTrap.cpp ****             case THREAD_START: {
  69:src/handleSupervisorTrap.cpp ****                 void* handle;
  70:src/handleSupervisorTrap.cpp ****                 __asm__ ("mv %[p], a1" : [p] "=r"(handle));
  71:src/handleSupervisorTrap.cpp ****                 ((PCB*)handle)->start();
  72:src/handleSupervisorTrap.cpp ****                 break;
  73:src/handleSupervisorTrap.cpp ****             }
  74:src/handleSupervisorTrap.cpp ****             case SEM_OPEN: {
  75:src/handleSupervisorTrap.cpp ****                 int init = 1;
  76:src/handleSupervisorTrap.cpp ****                 sem_t* handle;
  77:src/handleSupervisorTrap.cpp ****                 __asm__ ("mv %[p], a1" : [p] "=r"(handle));
  78:src/handleSupervisorTrap.cpp ****                 __asm__ ("mv %[p], a2" : [p] "=r"(init));
GAS LISTING /tmp/ccSNmVrS.s 			page 16


  79:src/handleSupervisorTrap.cpp ****                 *handle = new BackSemaphore(init);
  80:src/handleSupervisorTrap.cpp ****                 int ret = handle ? 0 : -1;
  81:src/handleSupervisorTrap.cpp ****                 __asm__ ("mv a0, %[p]"::[p]"r"(ret));
  82:src/handleSupervisorTrap.cpp ****                 break;
  83:src/handleSupervisorTrap.cpp ****             }
  84:src/handleSupervisorTrap.cpp ****             case SEM_CLOSE: {
  85:src/handleSupervisorTrap.cpp ****                 sem_t handle;
  86:src/handleSupervisorTrap.cpp ****                 __asm__ ("mv %[p], a1" : [p] "=r"(handle));
  87:src/handleSupervisorTrap.cpp ****                 delete handle;
  88:src/handleSupervisorTrap.cpp ****                 __asm__ ("mv a0, %[p]"::[p]"r"(0));
  89:src/handleSupervisorTrap.cpp ****                 break;
  90:src/handleSupervisorTrap.cpp ****             }
  91:src/handleSupervisorTrap.cpp ****             case SEM_WAIT: {
  92:src/handleSupervisorTrap.cpp ****                 sem_t handle;
  93:src/handleSupervisorTrap.cpp ****                 __asm__ ("mv %[p], a1" : [p] "=r"(handle));
  94:src/handleSupervisorTrap.cpp ****                 int ret = handle->wait();
  95:src/handleSupervisorTrap.cpp ****                 __asm__ ("mv a0, %[p]"::[p]"r"(ret));
  96:src/handleSupervisorTrap.cpp ****                 break;
  97:src/handleSupervisorTrap.cpp ****             }
  98:src/handleSupervisorTrap.cpp ****             case SEM_SIGNAL: {
  99:src/handleSupervisorTrap.cpp ****                 sem_t handle;
 100:src/handleSupervisorTrap.cpp ****                 __asm__ ("mv %[p], a1" : [p] "=r"(handle));
 101:src/handleSupervisorTrap.cpp ****                 int ret = handle->signal();
 102:src/handleSupervisorTrap.cpp ****                 __asm__ ("mv a0, %[p]"::[p]"r"(ret));
 103:src/handleSupervisorTrap.cpp ****                 break;
 104:src/handleSupervisorTrap.cpp ****             }
 105:src/handleSupervisorTrap.cpp ****             case GETC: {
 106:src/handleSupervisorTrap.cpp ****                 is_console = 1;
 107:src/handleSupervisorTrap.cpp ****                 char c = __getc();
 108:src/handleSupervisorTrap.cpp ****                 __asm__ ("mv a0, %[p]"::[p]"r"(c));
 109:src/handleSupervisorTrap.cpp ****                 is_console = 0;
 110:src/handleSupervisorTrap.cpp ****                 break;
 111:src/handleSupervisorTrap.cpp ****             }
 112:src/handleSupervisorTrap.cpp ****             case PUTC: {
 113:src/handleSupervisorTrap.cpp ****                 is_console = 1;
 114:src/handleSupervisorTrap.cpp ****                 char c;
 115:src/handleSupervisorTrap.cpp ****                 __asm__ ("mv %[p], a1" : [p] "=r"(c));
 116:src/handleSupervisorTrap.cpp ****                 __putc(c);
 117:src/handleSupervisorTrap.cpp ****                 is_console = 0;
 118:src/handleSupervisorTrap.cpp ****                 break;
 119:src/handleSupervisorTrap.cpp ****             }
 120:src/handleSupervisorTrap.cpp ****             default:{
 121:src/handleSupervisorTrap.cpp ****               timerCounter = 0;
 122:src/handleSupervisorTrap.cpp ****               PCB::dispatch();
 123:src/handleSupervisorTrap.cpp ****             };
 124:src/handleSupervisorTrap.cpp ****         }
 125:src/handleSupervisorTrap.cpp ****         __asm__ volatile ("csrw sstatus, %[sstatus]" : : [sstatus] "r"(sstatus));
 126:src/handleSupervisorTrap.cpp ****         __asm__ volatile ("csrw sepc, %[sepc]" : : [sepc] "r"(sepc));
 127:src/handleSupervisorTrap.cpp **** 
 128:src/handleSupervisorTrap.cpp ****     } else if (scause == 0x8000000000000001UL)
 711              		.loc 2 128 12 is_stmt 1
 712              	.LBB89:
 713              	.LBB39:
 714              		.loc 2 128 23 is_stmt 0
 715 02a8 033784FC 		ld	a4,-56(s0)
 716              		.loc 2 128 12
 717 02ac 9307F0FF 		li	a5,-1
GAS LISTING /tmp/ccSNmVrS.s 			page 17


 718 02b0 9397F703 		slli	a5,a5,63
 719 02b4 93871700 		addi	a5,a5,1
 720 02b8 6300F728 		beq	a4,a5,.L74
 721              	.LBE39:
 722              	.LBE89:
 129:src/handleSupervisorTrap.cpp ****     {
 130:src/handleSupervisorTrap.cpp ****         if (is_console == 0) {
 131:src/handleSupervisorTrap.cpp ****             timerCounter++;
 132:src/handleSupervisorTrap.cpp ****             if (timerCounter >= DEFAULT_TIME_SLICE) {
 133:src/handleSupervisorTrap.cpp **** 
 134:src/handleSupervisorTrap.cpp ****                 uint64 sepc = r_sepc();
 135:src/handleSupervisorTrap.cpp ****                 uint64 sstatus = r_sstatus();
 136:src/handleSupervisorTrap.cpp ****                 timerCounter = 0;
 137:src/handleSupervisorTrap.cpp ****                 PCB::running->dispatch();
 138:src/handleSupervisorTrap.cpp ****                 __asm__ volatile ("csrw sstatus, %[sstatus]" : : [sstatus] "r"(sstatus));
 139:src/handleSupervisorTrap.cpp ****                 __asm__ volatile ("csrw sepc, %[sepc]" : : [sepc] "r"(sepc));
 140:src/handleSupervisorTrap.cpp **** 
 141:src/handleSupervisorTrap.cpp ****             }
 142:src/handleSupervisorTrap.cpp ****         }
 143:src/handleSupervisorTrap.cpp ****         mc_sip(SIP_SSIP);
 144:src/handleSupervisorTrap.cpp ****     } else if (scause == 0x8000000000000009UL)
 723              		.loc 2 144 12 is_stmt 1
 724              	.LBB90:
 725              	.LBB52:
 726              	.LBB40:
 727              		.loc 2 144 23 is_stmt 0
 728 02bc 033784FC 		ld	a4,-56(s0)
 729              		.loc 2 144 12
 730 02c0 9307F0FF 		li	a5,-1
 731 02c4 9397F703 		slli	a5,a5,63
 732 02c8 93879700 		addi	a5,a5,9
 733 02cc 6300F72E 		beq	a4,a5,.L75
 145:src/handleSupervisorTrap.cpp ****     {
 146:src/handleSupervisorTrap.cpp ****         uint64 sepc = r_sepc();
 147:src/handleSupervisorTrap.cpp ****         uint64 sstatus = r_sstatus();
 148:src/handleSupervisorTrap.cpp ****         console_handler();
 149:src/handleSupervisorTrap.cpp ****         __asm__ volatile ("csrw sstatus, %[sstatus]" : : [sstatus] "r"(sstatus));
 150:src/handleSupervisorTrap.cpp ****         __asm__ volatile ("csrw sepc, %[sepc]" : : [sepc] "r"(sepc));
 151:src/handleSupervisorTrap.cpp ****     }
 152:src/handleSupervisorTrap.cpp ****     else{
 153:src/handleSupervisorTrap.cpp ****         printString("ERROR : unexpected trap cause\nscause: ");
 734              		.loc 2 153 9 is_stmt 1
 735              		.loc 2 153 20 is_stmt 0
 736 02d0 17050000 		lla	a0,.LC0
 736      13050500 
 737              	.LEHB0:
 738 02d8 97000000 		call	_Z11printStringPKc@plt
 738      E7800000 
 739              	.LVL13:
 154:src/handleSupervisorTrap.cpp ****         printInt(scause); printString("\n");
 740              		.loc 2 154 9 is_stmt 1
 741              		.loc 2 154 17 is_stmt 0
 742 02e0 033584FC 		ld	a0,-56(s0)
 743 02e4 13060000 		li	a2,0
 744 02e8 9305A000 		li	a1,10
 745 02ec 1B050500 		sext.w	a0,a0
 746 02f0 97000000 		call	_Z8printIntiii@plt
GAS LISTING /tmp/ccSNmVrS.s 			page 18


 746      E7800000 
 747              	.LVL14:
 748              		.loc 2 154 27 is_stmt 1
 749              		.loc 2 154 38 is_stmt 0
 750 02f8 17050000 		lla	a0,.LC1
 750      13050500 
 751 0300 97000000 		call	_Z11printStringPKc@plt
 751      E7800000 
 752              	.LVL15:
 753              	.LBE40:
 754              	.LBE52:
 755              	.LBE90:
 155:src/handleSupervisorTrap.cpp ****     }
 156:src/handleSupervisorTrap.cpp **** 
 157:src/handleSupervisorTrap.cpp **** }...
 756              		.loc 2 157 1
 757 0308 6F004007 		j	.L41
 758              	.L42:
 759              	.LBB91:
 760              	.LBB53:
  15:src/handleSupervisorTrap.cpp ****         uint64 volatile f = r_a0();
 761              		.loc 2 15 9 is_stmt 1
  15:src/handleSupervisorTrap.cpp ****         uint64 volatile f = r_a0();
 762              		.loc 2 15 33 is_stmt 0
 763 030c 97000000 		call	_Z4r_a0v
 763      E7800000 
 764              	.LVL16:
  15:src/handleSupervisorTrap.cpp ****         uint64 volatile f = r_a0();
 765              		.loc 2 15 34
 766 0314 2338A4FA 		sd	a0,-80(s0)
  16:src/handleSupervisorTrap.cpp ****         uint64 volatile sepc = r_sepc() + 4;
 767              		.loc 2 16 9 is_stmt 1
  16:src/handleSupervisorTrap.cpp ****         uint64 volatile sepc = r_sepc() + 4;
 768              		.loc 2 16 38 is_stmt 0
 769 0318 97000000 		call	_Z6r_sepcv
 769      E7800000 
 770              	.LVL17:
  16:src/handleSupervisorTrap.cpp ****         uint64 volatile sepc = r_sepc() + 4;
 771              		.loc 2 16 41
 772 0320 13054500 		addi	a0,a0,4
  16:src/handleSupervisorTrap.cpp ****         uint64 volatile sepc = r_sepc() + 4;
 773              		.loc 2 16 43
 774 0324 233CA4FA 		sd	a0,-72(s0)
  17:src/handleSupervisorTrap.cpp ****         uint64 volatile sstatus = r_sstatus();
 775              		.loc 2 17 9 is_stmt 1
  17:src/handleSupervisorTrap.cpp ****         uint64 volatile sstatus = r_sstatus();
 776              		.loc 2 17 44 is_stmt 0
 777 0328 97000000 		call	_Z9r_sstatusv
 777      E7800000 
 778              	.LVL18:
  17:src/handleSupervisorTrap.cpp ****         uint64 volatile sstatus = r_sstatus();
 779              		.loc 2 17 45
 780 0330 2330A4FC 		sd	a0,-64(s0)
  20:src/handleSupervisorTrap.cpp ****         switch (f) {
 781              		.loc 2 20 9 is_stmt 1
 782              	.LBB54:
  20:src/handleSupervisorTrap.cpp ****         switch (f) {
GAS LISTING /tmp/ccSNmVrS.s 			page 19


 783              		.loc 2 20 17 is_stmt 0
 784 0334 833704FB 		ld	a5,-80(s0)
 785 0338 13072004 		li	a4,66
 786 033c 6362F71E 		bgtu	a5,a4,.L45
 787 0340 93972700 		slli	a5,a5,2
 788 0344 17070000 		lla	a4,.L47
 788      13070700 
 789 034c B387E700 		add	a5,a5,a4
 790 0350 83A70700 		lw	a5,0(a5)
 791 0354 B387E700 		add	a5,a5,a4
 792 0358 67800700 		jr	a5
 793              		.section	.rodata
 794              		.align	2
 795              		.align	2
 796              	.L47:
 797 0000 00000000 		.word	.L45-.L47
 798 0004 00000000 		.word	.L60-.L47
 799 0008 00000000 		.word	.L59-.L47
 800 000c 00000000 		.word	.L58-.L47
 801 0010 00000000 		.word	.L57-.L47
 802 0014 00000000 		.word	.L45-.L47
 803 0018 00000000 		.word	.L45-.L47
 804 001c 00000000 		.word	.L45-.L47
 805 0020 00000000 		.word	.L45-.L47
 806 0024 00000000 		.word	.L45-.L47
 807 0028 00000000 		.word	.L45-.L47
 808 002c 00000000 		.word	.L45-.L47
 809 0030 00000000 		.word	.L45-.L47
 810 0034 00000000 		.word	.L45-.L47
 811 0038 00000000 		.word	.L45-.L47
 812 003c 00000000 		.word	.L45-.L47
 813 0040 00000000 		.word	.L45-.L47
 814 0044 00000000 		.word	.L56-.L47
 815 0048 00000000 		.word	.L55-.L47
 816 004c 00000000 		.word	.L54-.L47
 817 0050 00000000 		.word	.L53-.L47
 818 0054 00000000 		.word	.L45-.L47
 819 0058 00000000 		.word	.L45-.L47
 820 005c 00000000 		.word	.L45-.L47
 821 0060 00000000 		.word	.L45-.L47
 822 0064 00000000 		.word	.L45-.L47
 823 0068 00000000 		.word	.L45-.L47
 824 006c 00000000 		.word	.L45-.L47
 825 0070 00000000 		.word	.L45-.L47
 826 0074 00000000 		.word	.L45-.L47
 827 0078 00000000 		.word	.L45-.L47
 828 007c 00000000 		.word	.L45-.L47
 829 0080 00000000 		.word	.L45-.L47
 830 0084 00000000 		.word	.L52-.L47
 831 0088 00000000 		.word	.L51-.L47
 832 008c 00000000 		.word	.L50-.L47
 833 0090 00000000 		.word	.L49-.L47
 834 0094 00000000 		.word	.L45-.L47
 835 0098 00000000 		.word	.L45-.L47
 836 009c 00000000 		.word	.L45-.L47
 837 00a0 00000000 		.word	.L45-.L47
 838 00a4 00000000 		.word	.L45-.L47
GAS LISTING /tmp/ccSNmVrS.s 			page 20


 839 00a8 00000000 		.word	.L45-.L47
 840 00ac 00000000 		.word	.L45-.L47
 841 00b0 00000000 		.word	.L45-.L47
 842 00b4 00000000 		.word	.L45-.L47
 843 00b8 00000000 		.word	.L45-.L47
 844 00bc 00000000 		.word	.L45-.L47
 845 00c0 00000000 		.word	.L45-.L47
 846 00c4 00000000 		.word	.L45-.L47
 847 00c8 00000000 		.word	.L45-.L47
 848 00cc 00000000 		.word	.L45-.L47
 849 00d0 00000000 		.word	.L45-.L47
 850 00d4 00000000 		.word	.L45-.L47
 851 00d8 00000000 		.word	.L45-.L47
 852 00dc 00000000 		.word	.L45-.L47
 853 00e0 00000000 		.word	.L45-.L47
 854 00e4 00000000 		.word	.L45-.L47
 855 00e8 00000000 		.word	.L45-.L47
 856 00ec 00000000 		.word	.L45-.L47
 857 00f0 00000000 		.word	.L45-.L47
 858 00f4 00000000 		.word	.L45-.L47
 859 00f8 00000000 		.word	.L45-.L47
 860 00fc 00000000 		.word	.L45-.L47
 861 0100 00000000 		.word	.L45-.L47
 862 0104 00000000 		.word	.L48-.L47
 863 0108 00000000 		.word	.L46-.L47
 864              		.text
 865              	.L60:
 866              	.LBB55:
  21:src/handleSupervisorTrap.cpp ****             case MEM_ALLOC: {
 867              		.loc 2 21 13 is_stmt 1
  21:src/handleSupervisorTrap.cpp ****             case MEM_ALLOC: {
 868              		.loc 2 21 29
 869              	.LBB56:
  22:src/handleSupervisorTrap.cpp ****                 size_t a1 = 0;
 870              		.loc 2 22 17
 871              	.LVL19:
  23:src/handleSupervisorTrap.cpp ****                 __asm__ ("mv %[a1], a1" : [a1] "=r"(a1));
 872              		.loc 2 23 17
  23:src/handleSupervisorTrap.cpp ****                 __asm__ ("mv %[a1], a1" : [a1] "=r"(a1));
 873              		.loc 2 23 57 is_stmt 0
 874              	#APP
 875              	# 23 "src/handleSupervisorTrap.cpp" 1
 876              		mv a0, a1
 877              	# 0 "" 2
 878              	.LVL20:
  24:src/handleSupervisorTrap.cpp ****                 void* addr = MemoryAllocator::allocate(a1);
 879              		.loc 2 24 17 is_stmt 1
  24:src/handleSupervisorTrap.cpp ****                 void* addr = MemoryAllocator::allocate(a1);
 880              		.loc 2 24 55 is_stmt 0
 881              	#NO_APP
 882 0360 97000000 		call	_ZN15MemoryAllocator8allocateEm@plt
 882      E7800000 
 883              	.LVL21:
  25:src/handleSupervisorTrap.cpp ****                 __asm__ ("mv a0, %0" : : "r"(addr));
 884              		.loc 2 25 17 is_stmt 1
  25:src/handleSupervisorTrap.cpp ****                 __asm__ ("mv a0, %0" : : "r"(addr));
 885              		.loc 2 25 52 is_stmt 0
GAS LISTING /tmp/ccSNmVrS.s 			page 21


 886              	#APP
 887              	# 25 "src/handleSupervisorTrap.cpp" 1
  26:src/handleSupervisorTrap.cpp ****                 break;
 888              		mv a0, a0
 889              	# 0 "" 2
 890              		.loc 2 26 17 is_stmt 1
 891              	.LVL22:
 892              	#NO_APP
 893              	.L61:
 894              	.LBE56:
 123:src/handleSupervisorTrap.cpp ****             };
 895              		.loc 2 123 14
 896              	.LBE55:
 897              	.LBE54:
 125:src/handleSupervisorTrap.cpp ****         __asm__ volatile ("csrw sstatus, %[sstatus]" : : [sstatus] "r"(sstatus));
 898              		.loc 2 125 9
 125:src/handleSupervisorTrap.cpp ****         __asm__ volatile ("csrw sstatus, %[sstatus]" : : [sstatus] "r"(sstatus));
 899              		.loc 2 125 72 is_stmt 0
 900 036c 833704FC 		ld	a5,-64(s0)
 125:src/handleSupervisorTrap.cpp ****         __asm__ volatile ("csrw sstatus, %[sstatus]" : : [sstatus] "r"(sstatus));
 901              		.loc 2 125 81
 902              	#APP
 903              	# 125 "src/handleSupervisorTrap.cpp" 1
 126:src/handleSupervisorTrap.cpp ****         __asm__ volatile ("csrw sepc, %[sepc]" : : [sepc] "r"(sepc));
 904              		csrw sstatus, a5
 905              	# 0 "" 2
 906              		.loc 2 126 9 is_stmt 1
 126:src/handleSupervisorTrap.cpp ****         __asm__ volatile ("csrw sepc, %[sepc]" : : [sepc] "r"(sepc));
 907              		.loc 2 126 63 is_stmt 0
 908              	#NO_APP
 909 0374 833784FB 		ld	a5,-72(s0)
 126:src/handleSupervisorTrap.cpp ****         __asm__ volatile ("csrw sepc, %[sepc]" : : [sepc] "r"(sepc));
 910              		.loc 2 126 69
 911              	#APP
 912              	# 126 "src/handleSupervisorTrap.cpp" 1
 913              		csrw sepc, a5
 914              	# 0 "" 2
 915              	#NO_APP
 916              	.L41:
 917              	.LBE53:
 918              	.LBE91:
 919              		.loc 2 157 1
 920 037c 83308104 		ld	ra,72(sp)
 921              		.cfi_remember_state
 922              		.cfi_restore 1
 923 0380 03340104 		ld	s0,64(sp)
 924              		.cfi_restore 8
 925              		.cfi_def_cfa 2, 80
 926 0384 83348103 		ld	s1,56(sp)
 927              		.cfi_restore 9
 928 0388 03390103 		ld	s2,48(sp)
 929              		.cfi_restore 18
 930 038c 83398102 		ld	s3,40(sp)
 931              		.cfi_restore 19
 932 0390 033A0102 		ld	s4,32(sp)
 933              		.cfi_restore 20
 934 0394 13010105 		addi	sp,sp,80
GAS LISTING /tmp/ccSNmVrS.s 			page 22


 935              		.cfi_def_cfa_offset 0
 936 0398 67800000 		jr	ra
 937              	.L59:
 938              		.cfi_restore_state
 939              	.LBB92:
 940              	.LBB86:
 941              	.LBB84:
 942              	.LBB82:
  28:src/handleSupervisorTrap.cpp ****             case MEM_FREE: {
 943              		.loc 2 28 13 is_stmt 1
  28:src/handleSupervisorTrap.cpp ****             case MEM_FREE: {
 944              		.loc 2 28 28
 945              	.LBB57:
  29:src/handleSupervisorTrap.cpp ****                 void* a2;
 946              		.loc 2 29 17
  30:src/handleSupervisorTrap.cpp ****                 __asm__ ("mv %[a2], a1" : [a2] "=r"(a2));
 947              		.loc 2 30 17
  30:src/handleSupervisorTrap.cpp ****                 __asm__ ("mv %[a2], a1" : [a2] "=r"(a2));
 948              		.loc 2 30 57 is_stmt 0
 949              	#APP
 950              	# 30 "src/handleSupervisorTrap.cpp" 1
 951              		mv a0, a1
 952              	# 0 "" 2
 953              	.LVL23:
  31:src/handleSupervisorTrap.cpp ****                 int ret = MemoryAllocator::deallocate(a2);
 954              		.loc 2 31 17 is_stmt 1
  31:src/handleSupervisorTrap.cpp ****                 int ret = MemoryAllocator::deallocate(a2);
 955              		.loc 2 31 54 is_stmt 0
 956              	#NO_APP
 957 03a0 97000000 		call	_ZN15MemoryAllocator10deallocateEPv@plt
 957      E7800000 
 958              	.LVL24:
  32:src/handleSupervisorTrap.cpp ****                 __asm__ ("mv a0, %0" : : "r"(ret));
 959              		.loc 2 32 17 is_stmt 1
  32:src/handleSupervisorTrap.cpp ****                 __asm__ ("mv a0, %0" : : "r"(ret));
 960              		.loc 2 32 51 is_stmt 0
 961              	#APP
 962              	# 32 "src/handleSupervisorTrap.cpp" 1
  33:src/handleSupervisorTrap.cpp ****                 break;
 963              		mv a0, a0
 964              	# 0 "" 2
 965              		.loc 2 33 17 is_stmt 1
 966              	#NO_APP
 967 03ac 6FF01FFC 		j	.L61
 968              	.LVL25:
 969              	.L58:
 970              	.LBE57:
  35:src/handleSupervisorTrap.cpp ****             case MEM_GET_FREE_SPACE: {
 971              		.loc 2 35 13
  35:src/handleSupervisorTrap.cpp ****             case MEM_GET_FREE_SPACE: {
 972              		.loc 2 35 38
 973              	.LBB58:
  36:src/handleSupervisorTrap.cpp ****                 size_t ret = MemoryAllocator::get_free_space();
 974              		.loc 2 36 17
  36:src/handleSupervisorTrap.cpp ****                 size_t ret = MemoryAllocator::get_free_space();
 975              		.loc 2 36 61 is_stmt 0
 976 03b0 97000000 		call	_ZN15MemoryAllocator14get_free_spaceEv@plt
GAS LISTING /tmp/ccSNmVrS.s 			page 23


 976      E7800000 
 977              	.LVL26:
  37:src/handleSupervisorTrap.cpp ****                 __asm__ ("mv a0, %0" : : "r"(ret));
 978              		.loc 2 37 17 is_stmt 1
  37:src/handleSupervisorTrap.cpp ****                 __asm__ ("mv a0, %0" : : "r"(ret));
 979              		.loc 2 37 51 is_stmt 0
 980              	#APP
 981              	# 37 "src/handleSupervisorTrap.cpp" 1
  38:src/handleSupervisorTrap.cpp ****                 break;
 982              		mv a0, a0
 983              	# 0 "" 2
 984              		.loc 2 38 17 is_stmt 1
 985              	#NO_APP
 986 03bc 6FF01FFB 		j	.L61
 987              	.LVL27:
 988              	.L57:
 989              	.LBE58:
  40:src/handleSupervisorTrap.cpp ****             case MEM_GET_LARGEST_FREE_BLOCK: {
 990              		.loc 2 40 13
  40:src/handleSupervisorTrap.cpp ****             case MEM_GET_LARGEST_FREE_BLOCK: {
 991              		.loc 2 40 46
 992              	.LBB59:
  41:src/handleSupervisorTrap.cpp ****                 size_t ret = MemoryAllocator::get_largest_free_block();
 993              		.loc 2 41 17
  41:src/handleSupervisorTrap.cpp ****                 size_t ret = MemoryAllocator::get_largest_free_block();
 994              		.loc 2 41 69 is_stmt 0
 995 03c0 97000000 		call	_ZN15MemoryAllocator22get_largest_free_blockEv@plt
 995      E7800000 
 996              	.LVL28:
  42:src/handleSupervisorTrap.cpp ****                 __asm__ ("mv a0, %0" : : "r"(ret));
 997              		.loc 2 42 17 is_stmt 1
  42:src/handleSupervisorTrap.cpp ****                 __asm__ ("mv a0, %0" : : "r"(ret));
 998              		.loc 2 42 51 is_stmt 0
 999              	#APP
 1000              	# 42 "src/handleSupervisorTrap.cpp" 1
  43:src/handleSupervisorTrap.cpp ****                 break;
 1001              		mv a0, a0
 1002              	# 0 "" 2
 1003              		.loc 2 43 17 is_stmt 1
 1004              	#NO_APP
 1005 03cc 6FF01FFA 		j	.L61
 1006              	.LVL29:
 1007              	.L56:
 1008              	.LBE59:
  45:src/handleSupervisorTrap.cpp ****             case THREAD_CREATE: {
 1009              		.loc 2 45 13
  45:src/handleSupervisorTrap.cpp ****             case THREAD_CREATE: {
 1010              		.loc 2 45 33
 1011              	.LBB60:
  46:src/handleSupervisorTrap.cpp ****                 void (*body)(void*) = nullptr;
 1012              		.loc 2 46 17
  47:src/handleSupervisorTrap.cpp ****                 void* arg;
 1013              		.loc 2 47 17
  48:src/handleSupervisorTrap.cpp ****                 void* stack;
 1014              		.loc 2 48 17
  49:src/handleSupervisorTrap.cpp ****                 __asm__ ("mv %[p], a1" : [p] "=r"(body));
 1015              		.loc 2 49 17
GAS LISTING /tmp/ccSNmVrS.s 			page 24


  49:src/handleSupervisorTrap.cpp ****                 __asm__ ("mv %[p], a1" : [p] "=r"(body));
 1016              		.loc 2 49 57 is_stmt 0
 1017              	#APP
 1018              	# 49 "src/handleSupervisorTrap.cpp" 1
 1019              		mv s2, a1
 1020              	# 0 "" 2
 1021              	.LVL30:
  50:src/handleSupervisorTrap.cpp ****                 __asm__ ("mv %[p], a2" : [p] "=r"(arg));
 1022              		.loc 2 50 17 is_stmt 1
  50:src/handleSupervisorTrap.cpp ****                 __asm__ ("mv %[p], a2" : [p] "=r"(arg));
 1023              		.loc 2 50 56 is_stmt 0
 1024              	# 50 "src/handleSupervisorTrap.cpp" 1
  51:src/handleSupervisorTrap.cpp ****                 __asm__ ("mv %[p], a3" : [p] "=r"(stack));
 1025              		mv s3, a2
 1026              	# 0 "" 2
 1027              		.loc 2 51 17 is_stmt 1
  51:src/handleSupervisorTrap.cpp ****                 __asm__ ("mv %[p], a3" : [p] "=r"(stack));
 1028              		.loc 2 51 58 is_stmt 0
 1029              	# 51 "src/handleSupervisorTrap.cpp" 1
  52:src/handleSupervisorTrap.cpp ****                 PCB *pcb = new PCB(body, arg, stack);
 1030              		mv s4, a3
 1031              	# 0 "" 2
 1032              		.loc 2 52 17 is_stmt 1
 1033              	.LVL31:
 1034              	#NO_APP
 1035              	.LBB61:
 1036              	.LBB62:
 1037              		.file 3 "src/../h/PCB.hpp"
   1:src/../h/PCB.hpp **** #ifndef PCB_HPP
   2:src/../h/PCB.hpp **** #define PCB_HPP
   3:src/../h/PCB.hpp **** 
   4:src/../h/PCB.hpp **** #include "../h/MemoryAllocator.hpp"
   5:src/../h/PCB.hpp **** #include "general.hpp"
   6:src/../h/PCB.hpp **** 
   7:src/../h/PCB.hpp **** enum class ThreadState {
   8:src/../h/PCB.hpp ****     NEW,
   9:src/../h/PCB.hpp ****     READY,
  10:src/../h/PCB.hpp ****     RUNNING,
  11:src/../h/PCB.hpp ****     BLOCKED,
  12:src/../h/PCB.hpp ****     FINISHED,
  13:src/../h/PCB.hpp **** };
  14:src/../h/PCB.hpp **** class PCB {
  15:src/../h/PCB.hpp **** public:
  16:src/../h/PCB.hpp ****     PCB(void (*start_routine)(void*) = nullptr, void* arg = nullptr, void* stack = nullptr);
  17:src/../h/PCB.hpp **** 
  18:src/../h/PCB.hpp ****     ~PCB();
  19:src/../h/PCB.hpp **** 
  20:src/../h/PCB.hpp ****     void init(void (*start_routine)(void*), void* arg, void* stack);
  21:src/../h/PCB.hpp ****     static void run_thread_body();
  22:src/../h/PCB.hpp ****     void start();
  23:src/../h/PCB.hpp ****     static void dispatch();
  24:src/../h/PCB.hpp ****     static void exit();
  25:src/../h/PCB.hpp **** 
  26:src/../h/PCB.hpp ****     ThreadState state;
  27:src/../h/PCB.hpp **** 	int id;
  28:src/../h/PCB.hpp **** 	static int ident;
  29:src/../h/PCB.hpp ****     void (*body)(void*);
GAS LISTING /tmp/ccSNmVrS.s 			page 25


  30:src/../h/PCB.hpp ****     void* argument;
  31:src/../h/PCB.hpp ****     uint64* stackPointer;
  32:src/../h/PCB.hpp ****     uint64* returnAddress;
  33:src/../h/PCB.hpp ****     PCB* next;
  34:src/../h/PCB.hpp **** 
  35:src/../h/PCB.hpp ****     static PCB* running;
  36:src/../h/PCB.hpp ****     static PCB* main_thread;
  37:src/../h/PCB.hpp **** 
  38:src/../h/PCB.hpp ****     static void* operator new (size_t size) {
  39:src/../h/PCB.hpp ****         size_t aligned = MEM_ALIGN(size);
 1038              		.loc 3 39 9
  40:src/../h/PCB.hpp ****         void* ptr = MemoryAllocator::allocate(aligned);
 1039              		.loc 3 40 9
 1040              		.loc 3 40 46 is_stmt 0
 1041 03dc 13051000 		li	a0,1
 1042 03e0 97000000 		call	_ZN15MemoryAllocator8allocateEm@plt
 1042      E7800000 
 1043              	.LVL32:
 1044              	.LEHE0:
 1045 03e8 93040500 		mv	s1,a0
 1046              	.LVL33:
  41:src/../h/PCB.hpp ****         return ptr;
 1047              		.loc 3 41 9 is_stmt 1
 1048              	.LBE62:
 1049              	.LBE61:
  52:src/handleSupervisorTrap.cpp ****                 PCB *pcb = new PCB(body, arg, stack);
 1050              		.loc 2 52 52 is_stmt 0
 1051 03ec 93060A00 		mv	a3,s4
 1052 03f0 13860900 		mv	a2,s3
 1053 03f4 93050900 		mv	a1,s2
 1054              	.LEHB1:
 1055 03f8 97000000 		call	_ZN3PCBC1EPFvPvES0_S0_@plt
 1055      E7800000 
 1056              	.LVL34:
 1057              	.LEHE1:
  53:src/handleSupervisorTrap.cpp ****                 __asm__ ("mv a0, %[p]"::[p]"r"(pcb));
 1058              		.loc 2 53 17 is_stmt 1 discriminator 2
  53:src/handleSupervisorTrap.cpp ****                 __asm__ ("mv a0, %[p]"::[p]"r"(pcb));
 1059              		.loc 2 53 53 is_stmt 0 discriminator 2
 1060              	#APP
 1061              	# 53 "src/handleSupervisorTrap.cpp" 1
  54:src/handleSupervisorTrap.cpp ****                 break;
 1062              		mv a0, s1
 1063              	# 0 "" 2
 1064              		.loc 2 54 17 is_stmt 1 discriminator 2
 1065              	#NO_APP
 1066 0404 6FF09FF6 		j	.L61
 1067              	.LVL35:
 1068              	.L55:
 1069              	.LBE60:
  56:src/handleSupervisorTrap.cpp ****             case THREAD_EXIT: {
 1070              		.loc 2 56 13
  56:src/handleSupervisorTrap.cpp ****             case THREAD_EXIT: {
 1071              		.loc 2 56 31
 1072              	.LBB65:
  57:src/handleSupervisorTrap.cpp ****                 PCB::exit();
 1073              		.loc 2 57 17
GAS LISTING /tmp/ccSNmVrS.s 			page 26


 1074              	.LEHB2:
  57:src/handleSupervisorTrap.cpp ****                 PCB::exit();
 1075              		.loc 2 57 26 is_stmt 0
 1076 0408 97000000 		call	_ZN3PCB4exitEv@plt
 1076      E7800000 
 1077              	.LVL36:
  58:src/handleSupervisorTrap.cpp ****                 int ret = 0;
 1078              		.loc 2 58 17 is_stmt 1
  59:src/handleSupervisorTrap.cpp ****                 __asm__ ("mv a0, %0" : : "r"(ret));
 1079              		.loc 2 59 17
  59:src/handleSupervisorTrap.cpp ****                 __asm__ ("mv a0, %0" : : "r"(ret));
 1080              		.loc 2 59 51 is_stmt 0
 1081 0410 93070000 		li	a5,0
 1082              	#APP
 1083              	# 59 "src/handleSupervisorTrap.cpp" 1
  60:src/handleSupervisorTrap.cpp ****                 break;
 1084              		mv a0, a5
 1085              	# 0 "" 2
 1086              		.loc 2 60 17 is_stmt 1
 1087              	#NO_APP
 1088 0418 6FF05FF5 		j	.L61
 1089              	.LVL37:
 1090              	.L54:
 1091              	.LBE65:
  62:src/handleSupervisorTrap.cpp ****             case THREAD_DISPATCH: {
 1092              		.loc 2 62 13
  62:src/handleSupervisorTrap.cpp ****             case THREAD_DISPATCH: {
 1093              		.loc 2 62 35
 1094              	.LBB66:
  63:src/handleSupervisorTrap.cpp ****                 PCB::dispatch();
 1095              		.loc 2 63 17
  63:src/handleSupervisorTrap.cpp ****                 PCB::dispatch();
 1096              		.loc 2 63 30 is_stmt 0
 1097 041c 97000000 		call	_ZN3PCB8dispatchEv@plt
 1097      E7800000 
 1098              	.LVL38:
  64:src/handleSupervisorTrap.cpp ****                 int ret = 0;
 1099              		.loc 2 64 17 is_stmt 1
  65:src/handleSupervisorTrap.cpp ****                 __asm__ ("mv a0, %0" : : "r"(ret));
 1100              		.loc 2 65 17
  65:src/handleSupervisorTrap.cpp ****                 __asm__ ("mv a0, %0" : : "r"(ret));
 1101              		.loc 2 65 51 is_stmt 0
 1102 0424 93070000 		li	a5,0
 1103              	#APP
 1104              	# 65 "src/handleSupervisorTrap.cpp" 1
  66:src/handleSupervisorTrap.cpp ****                 break;
 1105              		mv a0, a5
 1106              	# 0 "" 2
 1107              		.loc 2 66 17 is_stmt 1
 1108              	#NO_APP
 1109 042c 6FF01FF4 		j	.L61
 1110              	.LVL39:
 1111              	.L53:
 1112              	.LBE66:
  68:src/handleSupervisorTrap.cpp ****             case THREAD_START: {
 1113              		.loc 2 68 13
  68:src/handleSupervisorTrap.cpp ****             case THREAD_START: {
GAS LISTING /tmp/ccSNmVrS.s 			page 27


 1114              		.loc 2 68 32
 1115              	.LBB67:
  69:src/handleSupervisorTrap.cpp ****                 void* handle;
 1116              		.loc 2 69 17
  70:src/handleSupervisorTrap.cpp ****                 __asm__ ("mv %[p], a1" : [p] "=r"(handle));
 1117              		.loc 2 70 17
  70:src/handleSupervisorTrap.cpp ****                 __asm__ ("mv %[p], a1" : [p] "=r"(handle));
 1118              		.loc 2 70 59 is_stmt 0
 1119              	#APP
 1120              	# 70 "src/handleSupervisorTrap.cpp" 1
 1121              		mv a0, a1
 1122              	# 0 "" 2
 1123              	.LVL40:
  71:src/handleSupervisorTrap.cpp ****                 ((PCB*)handle)->start();
 1124              		.loc 2 71 17 is_stmt 1
  71:src/handleSupervisorTrap.cpp ****                 ((PCB*)handle)->start();
 1125              		.loc 2 71 38 is_stmt 0
 1126              	#NO_APP
 1127 0434 97000000 		call	_ZN3PCB5startEv@plt
 1127      E7800000 
 1128              	.LVL41:
  72:src/handleSupervisorTrap.cpp ****                 break;
 1129              		.loc 2 72 17 is_stmt 1
 1130 043c 6FF01FF3 		j	.L61
 1131              	.L52:
 1132              	.LBE67:
  74:src/handleSupervisorTrap.cpp ****             case SEM_OPEN: {
 1133              		.loc 2 74 13
  74:src/handleSupervisorTrap.cpp ****             case SEM_OPEN: {
 1134              		.loc 2 74 28
 1135              	.LBB68:
  75:src/handleSupervisorTrap.cpp ****                 int init = 1;
 1136              		.loc 2 75 17
 1137              	.LVL42:
  76:src/handleSupervisorTrap.cpp ****                 sem_t* handle;
 1138              		.loc 2 76 17
  77:src/handleSupervisorTrap.cpp ****                 __asm__ ("mv %[p], a1" : [p] "=r"(handle));
 1139              		.loc 2 77 17
  77:src/handleSupervisorTrap.cpp ****                 __asm__ ("mv %[p], a1" : [p] "=r"(handle));
 1140              		.loc 2 77 59 is_stmt 0
 1141              	#APP
 1142              	# 77 "src/handleSupervisorTrap.cpp" 1
 1143              		mv s3, a1
 1144              	# 0 "" 2
 1145              	.LVL43:
  78:src/handleSupervisorTrap.cpp ****                 __asm__ ("mv %[p], a2" : [p] "=r"(init));
 1146              		.loc 2 78 17 is_stmt 1
  78:src/handleSupervisorTrap.cpp ****                 __asm__ ("mv %[p], a2" : [p] "=r"(init));
 1147              		.loc 2 78 57 is_stmt 0
 1148              	# 78 "src/handleSupervisorTrap.cpp" 1
 1149              		mv s2, a2
 1150              	# 0 "" 2
 1151              	.LVL44:
  79:src/handleSupervisorTrap.cpp ****                 *handle = new BackSemaphore(init);
 1152              		.loc 2 79 17 is_stmt 1
 1153              	#NO_APP
 1154              	.LBB69:
GAS LISTING /tmp/ccSNmVrS.s 			page 28


 1155              	.LBB70:
 1156              		.file 4 "src/../h/BackSemaphore.hpp"
   1:src/../h/BackSemaphore.hpp **** #pragma once
   2:src/../h/BackSemaphore.hpp **** #include "PCB.hpp"
   3:src/../h/BackSemaphore.hpp **** 
   4:src/../h/BackSemaphore.hpp **** class BackSemaphore{
   5:src/../h/BackSemaphore.hpp **** public:
   6:src/../h/BackSemaphore.hpp ****     BackSemaphore(unsigned init = 1);
   7:src/../h/BackSemaphore.hpp ****     ~BackSemaphore ();
   8:src/../h/BackSemaphore.hpp ****     int wait ();
   9:src/../h/BackSemaphore.hpp ****     int signal ();
  10:src/../h/BackSemaphore.hpp ****     int tryWait();
  11:src/../h/BackSemaphore.hpp ****     int get_val() {return val;}
  12:src/../h/BackSemaphore.hpp **** 
  13:src/../h/BackSemaphore.hpp ****     static void* operator new (size_t size) {
  14:src/../h/BackSemaphore.hpp ****         size_t aligned = MEM_ALIGN(size);
 1157              		.loc 4 14 9
  15:src/../h/BackSemaphore.hpp **** 
  16:src/../h/BackSemaphore.hpp ****         void* ptr = MemoryAllocator::allocate(aligned);
 1158              		.loc 4 16 9
 1159              		.loc 4 16 46 is_stmt 0
 1160 0448 13051000 		li	a0,1
 1161 044c 97000000 		call	_ZN15MemoryAllocator8allocateEm@plt
 1161      E7800000 
 1162              	.LVL45:
 1163              	.LEHE2:
 1164 0454 93040500 		mv	s1,a0
 1165              	.LVL46:
  17:src/../h/BackSemaphore.hpp ****         return ptr;
 1166              		.loc 4 17 9 is_stmt 1
 1167              	.LBE70:
 1168              	.LBE69:
  79:src/handleSupervisorTrap.cpp ****                 *handle = new BackSemaphore(init);
 1169              		.loc 2 79 49 is_stmt 0
 1170 0458 9B050900 		sext.w	a1,s2
 1171              	.LEHB3:
 1172 045c 97000000 		call	_ZN13BackSemaphoreC1Ej@plt
 1172      E7800000 
 1173              	.LVL47:
 1174              	.LEHE3:
  79:src/handleSupervisorTrap.cpp ****                 *handle = new BackSemaphore(init);
 1175              		.loc 2 79 25 discriminator 2
 1176 0464 23B09900 		sd	s1,0(s3)
  80:src/handleSupervisorTrap.cpp ****                 int ret = handle ? 0 : -1;
 1177              		.loc 2 80 17 is_stmt 1 discriminator 2
  80:src/handleSupervisorTrap.cpp ****                 int ret = handle ? 0 : -1;
 1178              		.loc 2 80 34 is_stmt 0 discriminator 2
 1179 0468 63880900 		beqz	s3,.L69
  80:src/handleSupervisorTrap.cpp ****                 int ret = handle ? 0 : -1;
 1180              		.loc 2 80 34
 1181 046c 93070000 		li	a5,0
 1182              	.L62:
 1183              	.LVL48:
  81:src/handleSupervisorTrap.cpp ****                 __asm__ ("mv a0, %[p]"::[p]"r"(ret));
 1184              		.loc 2 81 17 is_stmt 1 discriminator 4
  81:src/handleSupervisorTrap.cpp ****                 __asm__ ("mv a0, %[p]"::[p]"r"(ret));
 1185              		.loc 2 81 53 is_stmt 0 discriminator 4
GAS LISTING /tmp/ccSNmVrS.s 			page 29


 1186              	#APP
 1187              	# 81 "src/handleSupervisorTrap.cpp" 1
  82:src/handleSupervisorTrap.cpp ****                 break;
 1188              		mv a0, a5
 1189              	# 0 "" 2
 1190              		.loc 2 82 17 is_stmt 1 discriminator 4
 1191              	#NO_APP
 1192 0474 6FF09FEF 		j	.L61
 1193              	.LVL49:
 1194              	.L69:
  80:src/handleSupervisorTrap.cpp ****                 int ret = handle ? 0 : -1;
 1195              		.loc 2 80 34 is_stmt 0
 1196 0478 9307F0FF 		li	a5,-1
 1197 047c 6FF05FFF 		j	.L62
 1198              	.LVL50:
 1199              	.L51:
 1200              	.LBE68:
  84:src/handleSupervisorTrap.cpp ****             case SEM_CLOSE: {
 1201              		.loc 2 84 13 is_stmt 1
  84:src/handleSupervisorTrap.cpp ****             case SEM_CLOSE: {
 1202              		.loc 2 84 29
 1203              	.LBB73:
  85:src/handleSupervisorTrap.cpp ****                 sem_t handle;
 1204              		.loc 2 85 17
  86:src/handleSupervisorTrap.cpp ****                 __asm__ ("mv %[p], a1" : [p] "=r"(handle));
 1205              		.loc 2 86 17
  86:src/handleSupervisorTrap.cpp ****                 __asm__ ("mv %[p], a1" : [p] "=r"(handle));
 1206              		.loc 2 86 59 is_stmt 0
 1207              	#APP
 1208              	# 86 "src/handleSupervisorTrap.cpp" 1
 1209              		mv s1, a1
 1210              	# 0 "" 2
 1211              	.LVL51:
  87:src/handleSupervisorTrap.cpp ****                 delete handle;
 1212              		.loc 2 87 17 is_stmt 1
  87:src/handleSupervisorTrap.cpp ****                 delete handle;
 1213              		.loc 2 87 30 is_stmt 0
 1214              	#NO_APP
 1215 0484 638E0400 		beqz	s1,.L63
  87:src/handleSupervisorTrap.cpp ****                 delete handle;
 1216              		.loc 2 87 24 discriminator 1
 1217 0488 13850400 		mv	a0,s1
 1218 048c 97000000 		call	_ZN13BackSemaphoreD1Ev@plt
 1218      E7800000 
 1219              	.LVL52:
 1220              	.LBB74:
 1221              	.LBB75:
  18:src/../h/BackSemaphore.hpp ****     }
  19:src/../h/BackSemaphore.hpp **** 
  20:src/../h/BackSemaphore.hpp ****     static void operator delete (void* addr) {
  21:src/../h/BackSemaphore.hpp ****         MemoryAllocator::deallocate(addr);
 1222              		.loc 4 21 9 is_stmt 1 discriminator 1
 1223              		.loc 4 21 36 is_stmt 0 discriminator 1
 1224 0494 13850400 		mv	a0,s1
 1225              	.LEHB4:
 1226 0498 97000000 		call	_ZN15MemoryAllocator10deallocateEPv@plt
 1226      E7800000 
GAS LISTING /tmp/ccSNmVrS.s 			page 30


 1227              	.LVL53:
 1228              	.L63:
 1229              	.LBE75:
 1230              	.LBE74:
  88:src/handleSupervisorTrap.cpp ****                 __asm__ ("mv a0, %[p]"::[p]"r"(0));
 1231              		.loc 2 88 17 is_stmt 1
  88:src/handleSupervisorTrap.cpp ****                 __asm__ ("mv a0, %[p]"::[p]"r"(0));
 1232              		.loc 2 88 51 is_stmt 0
 1233 04a0 93070000 		li	a5,0
 1234              	#APP
 1235              	# 88 "src/handleSupervisorTrap.cpp" 1
  89:src/handleSupervisorTrap.cpp ****                 break;
 1236              		mv a0, a5
 1237              	# 0 "" 2
 1238              		.loc 2 89 17 is_stmt 1
 1239              	#NO_APP
 1240 04a8 6FF05FEC 		j	.L61
 1241              	.LVL54:
 1242              	.L50:
 1243              	.LBE73:
  91:src/handleSupervisorTrap.cpp ****             case SEM_WAIT: {
 1244              		.loc 2 91 13
  91:src/handleSupervisorTrap.cpp ****             case SEM_WAIT: {
 1245              		.loc 2 91 28
 1246              	.LBB76:
  92:src/handleSupervisorTrap.cpp ****                 sem_t handle;
 1247              		.loc 2 92 17
  93:src/handleSupervisorTrap.cpp ****                 __asm__ ("mv %[p], a1" : [p] "=r"(handle));
 1248              		.loc 2 93 17
  93:src/handleSupervisorTrap.cpp ****                 __asm__ ("mv %[p], a1" : [p] "=r"(handle));
 1249              		.loc 2 93 59 is_stmt 0
 1250              	#APP
 1251              	# 93 "src/handleSupervisorTrap.cpp" 1
 1252              		mv a0, a1
 1253              	# 0 "" 2
 1254              	.LVL55:
  94:src/handleSupervisorTrap.cpp ****                 int ret = handle->wait();
 1255              		.loc 2 94 17 is_stmt 1
  94:src/handleSupervisorTrap.cpp ****                 int ret = handle->wait();
 1256              		.loc 2 94 39 is_stmt 0
 1257              	#NO_APP
 1258 04b0 97000000 		call	_ZN13BackSemaphore4waitEv@plt
 1258      E7800000 
 1259              	.LVL56:
  95:src/handleSupervisorTrap.cpp ****                 __asm__ ("mv a0, %[p]"::[p]"r"(ret));
 1260              		.loc 2 95 17 is_stmt 1
  95:src/handleSupervisorTrap.cpp ****                 __asm__ ("mv a0, %[p]"::[p]"r"(ret));
 1261              		.loc 2 95 53 is_stmt 0
 1262              	#APP
 1263              	# 95 "src/handleSupervisorTrap.cpp" 1
  96:src/handleSupervisorTrap.cpp ****                 break;
 1264              		mv a0, a0
 1265              	# 0 "" 2
 1266              		.loc 2 96 17 is_stmt 1
 1267              	#NO_APP
 1268 04bc 6FF01FEB 		j	.L61
 1269              	.LVL57:
GAS LISTING /tmp/ccSNmVrS.s 			page 31


 1270              	.L49:
 1271              	.LBE76:
  98:src/handleSupervisorTrap.cpp ****             case SEM_SIGNAL: {
 1272              		.loc 2 98 13
  98:src/handleSupervisorTrap.cpp ****             case SEM_SIGNAL: {
 1273              		.loc 2 98 30
 1274              	.LBB77:
  99:src/handleSupervisorTrap.cpp ****                 sem_t handle;
 1275              		.loc 2 99 17
 100:src/handleSupervisorTrap.cpp ****                 __asm__ ("mv %[p], a1" : [p] "=r"(handle));
 1276              		.loc 2 100 17
 100:src/handleSupervisorTrap.cpp ****                 __asm__ ("mv %[p], a1" : [p] "=r"(handle));
 1277              		.loc 2 100 59 is_stmt 0
 1278              	#APP
 1279              	# 100 "src/handleSupervisorTrap.cpp" 1
 1280              		mv a0, a1
 1281              	# 0 "" 2
 1282              	.LVL58:
 101:src/handleSupervisorTrap.cpp ****                 int ret = handle->signal();
 1283              		.loc 2 101 17 is_stmt 1
 101:src/handleSupervisorTrap.cpp ****                 int ret = handle->signal();
 1284              		.loc 2 101 41 is_stmt 0
 1285              	#NO_APP
 1286 04c4 97000000 		call	_ZN13BackSemaphore6signalEv@plt
 1286      E7800000 
 1287              	.LVL59:
 102:src/handleSupervisorTrap.cpp ****                 __asm__ ("mv a0, %[p]"::[p]"r"(ret));
 1288              		.loc 2 102 17 is_stmt 1
 102:src/handleSupervisorTrap.cpp ****                 __asm__ ("mv a0, %[p]"::[p]"r"(ret));
 1289              		.loc 2 102 53 is_stmt 0
 1290              	#APP
 1291              	# 102 "src/handleSupervisorTrap.cpp" 1
 103:src/handleSupervisorTrap.cpp ****                 break;
 1292              		mv a0, a0
 1293              	# 0 "" 2
 1294              		.loc 2 103 17 is_stmt 1
 1295              	#NO_APP
 1296 04d0 6FF0DFE9 		j	.L61
 1297              	.LVL60:
 1298              	.L48:
 1299              	.LBE77:
 105:src/handleSupervisorTrap.cpp ****             case GETC: {
 1300              		.loc 2 105 13
 105:src/handleSupervisorTrap.cpp ****             case GETC: {
 1301              		.loc 2 105 24
 1302              	.LBB78:
 106:src/handleSupervisorTrap.cpp ****                 is_console = 1;
 1303              		.loc 2 106 17
 106:src/handleSupervisorTrap.cpp ****                 is_console = 1;
 1304              		.loc 2 106 28 is_stmt 0
 1305 04d4 97040000 		la	s1,is_console
 1305      83B40400 
 1306 04dc 93071000 		li	a5,1
 1307 04e0 23B0F400 		sd	a5,0(s1)
 107:src/handleSupervisorTrap.cpp ****                 char c = __getc();
 1308              		.loc 2 107 17 is_stmt 1
 107:src/handleSupervisorTrap.cpp ****                 char c = __getc();
GAS LISTING /tmp/ccSNmVrS.s 			page 32


 1309              		.loc 2 107 32 is_stmt 0
 1310 04e4 97000000 		call	__getc@plt
 1310      E7800000 
 1311              	.LVL61:
 108:src/handleSupervisorTrap.cpp ****                 __asm__ ("mv a0, %[p]"::[p]"r"(c));
 1312              		.loc 2 108 17 is_stmt 1
 108:src/handleSupervisorTrap.cpp ****                 __asm__ ("mv a0, %[p]"::[p]"r"(c));
 1313              		.loc 2 108 51 is_stmt 0
 1314              	#APP
 1315              	# 108 "src/handleSupervisorTrap.cpp" 1
 109:src/handleSupervisorTrap.cpp ****                 is_console = 0;
 1316              		mv a0, a0
 1317              	# 0 "" 2
 1318              		.loc 2 109 17 is_stmt 1
 109:src/handleSupervisorTrap.cpp ****                 is_console = 0;
 1319              		.loc 2 109 28 is_stmt 0
 1320              	#NO_APP
 1321 04f0 23B00400 		sd	zero,0(s1)
 110:src/handleSupervisorTrap.cpp ****                 break;
 1322              		.loc 2 110 17 is_stmt 1
 1323 04f4 6FF09FE7 		j	.L61
 1324              	.LVL62:
 1325              	.L46:
 1326              	.LBE78:
 112:src/handleSupervisorTrap.cpp ****             case PUTC: {
 1327              		.loc 2 112 13
 112:src/handleSupervisorTrap.cpp ****             case PUTC: {
 1328              		.loc 2 112 24
 1329              	.LBB79:
 113:src/handleSupervisorTrap.cpp ****                 is_console = 1;
 1330              		.loc 2 113 17
 113:src/handleSupervisorTrap.cpp ****                 is_console = 1;
 1331              		.loc 2 113 28 is_stmt 0
 1332 04f8 97040000 		la	s1,is_console
 1332      83B40400 
 1333 0500 93071000 		li	a5,1
 1334 0504 23B0F400 		sd	a5,0(s1)
 114:src/handleSupervisorTrap.cpp ****                 char c;
 1335              		.loc 2 114 17 is_stmt 1
 115:src/handleSupervisorTrap.cpp ****                 __asm__ ("mv %[p], a1" : [p] "=r"(c));
 1336              		.loc 2 115 17
 115:src/handleSupervisorTrap.cpp ****                 __asm__ ("mv %[p], a1" : [p] "=r"(c));
 1337              		.loc 2 115 54 is_stmt 0
 1338              	#APP
 1339              	# 115 "src/handleSupervisorTrap.cpp" 1
 1340              		mv a0, a1
 1341              	# 0 "" 2
 1342              	.LVL63:
 116:src/handleSupervisorTrap.cpp ****                 __putc(c);
 1343              		.loc 2 116 17 is_stmt 1
 116:src/handleSupervisorTrap.cpp ****                 __putc(c);
 1344              		.loc 2 116 23 is_stmt 0
 1345              	#NO_APP
 1346 050c 1375F50F 		andi	a0,a0,0xff
 1347 0510 97000000 		call	__putc@plt
 1347      E7800000 
 1348              	.LVL64:
GAS LISTING /tmp/ccSNmVrS.s 			page 33


 117:src/handleSupervisorTrap.cpp ****                 is_console = 0;
 1349              		.loc 2 117 17 is_stmt 1
 117:src/handleSupervisorTrap.cpp ****                 is_console = 0;
 1350              		.loc 2 117 28 is_stmt 0
 1351 0518 23B00400 		sd	zero,0(s1)
 118:src/handleSupervisorTrap.cpp ****                 break;
 1352              		.loc 2 118 17 is_stmt 1
 1353 051c 6FF01FE5 		j	.L61
 1354              	.L45:
 1355              	.LBE79:
 120:src/handleSupervisorTrap.cpp ****             default:{
 1356              		.loc 2 120 13
 120:src/handleSupervisorTrap.cpp ****             default:{
 1357              		.loc 2 120 21
 121:src/handleSupervisorTrap.cpp ****               timerCounter = 0;
 1358              		.loc 2 121 15
 121:src/handleSupervisorTrap.cpp ****               timerCounter = 0;
 1359              		.loc 2 121 28 is_stmt 0
 1360 0520 97070000 		la	a5,timerCounter
 1360      83B70700 
 1361 0528 23B00700 		sd	zero,0(a5)
 122:src/handleSupervisorTrap.cpp ****               PCB::dispatch();
 1362              		.loc 2 122 15 is_stmt 1
 122:src/handleSupervisorTrap.cpp ****               PCB::dispatch();
 1363              		.loc 2 122 28 is_stmt 0
 1364 052c 97000000 		call	_ZN3PCB8dispatchEv@plt
 1364      E7800000 
 1365              	.LVL65:
 1366 0534 6FF09FE3 		j	.L61
 1367              	.L74:
 1368              	.LBE82:
 1369              	.LBE84:
 1370              	.LBE86:
 1371              	.LBB87:
 1372              	.LBB42:
 130:src/handleSupervisorTrap.cpp ****         if (is_console == 0) {
 1373              		.loc 2 130 9 is_stmt 1
 1374              	.LBB43:
 130:src/handleSupervisorTrap.cpp ****         if (is_console == 0) {
 1375              		.loc 2 130 24 is_stmt 0
 1376 0538 97070000 		la	a5,is_console
 1376      83B70700 
 1377 0540 83B70700 		ld	a5,0(a5)
 130:src/handleSupervisorTrap.cpp ****         if (is_console == 0) {
 1378              		.loc 2 130 9
 1379 0544 63900702 		bnez	a5,.L65
 1380              	.LBB44:
 131:src/handleSupervisorTrap.cpp ****             timerCounter++;
 1381              		.loc 2 131 13 is_stmt 1
 131:src/handleSupervisorTrap.cpp ****             timerCounter++;
 1382              		.loc 2 131 25 is_stmt 0
 1383 0548 17070000 		la	a4,timerCounter
 1383      03370700 
 1384 0550 83370700 		ld	a5,0(a4)
 1385 0554 93871700 		addi	a5,a5,1
 1386 0558 2330F700 		sd	a5,0(a4)
 132:src/handleSupervisorTrap.cpp ****             if (timerCounter >= DEFAULT_TIME_SLICE) {
GAS LISTING /tmp/ccSNmVrS.s 			page 34


 1387              		.loc 2 132 13 is_stmt 1
 1388              	.LBB45:
 1389 055c 13071000 		li	a4,1
 1390 0560 636AF700 		bgtu	a5,a4,.L76
 1391              	.L65:
 1392              	.LBE45:
 1393              	.LBE44:
 1394              	.LBE43:
 143:src/handleSupervisorTrap.cpp ****         mc_sip(SIP_SSIP);
 1395              		.loc 2 143 9
 143:src/handleSupervisorTrap.cpp ****         mc_sip(SIP_SSIP);
 1396              		.loc 2 143 15 is_stmt 0
 1397 0564 13052000 		li	a0,2
 1398 0568 97000000 		call	_Z6mc_sipm
 1398      E7800000 
 1399              	.LVL66:
 1400              	.LBE42:
 1401 0570 6FF0DFE0 		j	.L41
 1402              	.L76:
 1403              	.LBB50:
 1404              	.LBB49:
 1405              	.LBB48:
 1406              	.LBB47:
 1407              	.LBB46:
 134:src/handleSupervisorTrap.cpp ****                 uint64 sepc = r_sepc();
 1408              		.loc 2 134 17 is_stmt 1
 134:src/handleSupervisorTrap.cpp ****                 uint64 sepc = r_sepc();
 1409              		.loc 2 134 37 is_stmt 0
 1410 0574 97000000 		call	_Z6r_sepcv
 1410      E7800000 
 1411              	.LVL67:
 1412 057c 93040500 		mv	s1,a0
 1413              	.LVL68:
 135:src/handleSupervisorTrap.cpp ****                 uint64 sstatus = r_sstatus();
 1414              		.loc 2 135 17 is_stmt 1
 135:src/handleSupervisorTrap.cpp ****                 uint64 sstatus = r_sstatus();
 1415              		.loc 2 135 43 is_stmt 0
 1416 0580 97000000 		call	_Z9r_sstatusv
 1416      E7800000 
 1417              	.LVL69:
 1418 0588 13090500 		mv	s2,a0
 1419              	.LVL70:
 136:src/handleSupervisorTrap.cpp ****                 timerCounter = 0;
 1420              		.loc 2 136 17 is_stmt 1
 136:src/handleSupervisorTrap.cpp ****                 timerCounter = 0;
 1421              		.loc 2 136 30 is_stmt 0
 1422 058c 97070000 		la	a5,timerCounter
 1422      83B70700 
 1423 0594 23B00700 		sd	zero,0(a5)
 137:src/handleSupervisorTrap.cpp ****                 PCB::running->dispatch();
 1424              		.loc 2 137 17 is_stmt 1
 137:src/handleSupervisorTrap.cpp ****                 PCB::running->dispatch();
 1425              		.loc 2 137 39 is_stmt 0
 1426 0598 97000000 		call	_ZN3PCB8dispatchEv@plt
 1426      E7800000 
 1427              	.LVL71:
 138:src/handleSupervisorTrap.cpp ****                 __asm__ volatile ("csrw sstatus, %[sstatus]" : : [sstatus] "r"(sstatus));
GAS LISTING /tmp/ccSNmVrS.s 			page 35


 1428              		.loc 2 138 17 is_stmt 1
 138:src/handleSupervisorTrap.cpp ****                 __asm__ volatile ("csrw sstatus, %[sstatus]" : : [sstatus] "r"(sstatus));
 1429              		.loc 2 138 89 is_stmt 0
 1430              	#APP
 1431              	# 138 "src/handleSupervisorTrap.cpp" 1
 139:src/handleSupervisorTrap.cpp ****                 __asm__ volatile ("csrw sepc, %[sepc]" : : [sepc] "r"(sepc));
 1432              		csrw sstatus, s2
 1433              	# 0 "" 2
 1434              		.loc 2 139 17 is_stmt 1
 139:src/handleSupervisorTrap.cpp ****                 __asm__ volatile ("csrw sepc, %[sepc]" : : [sepc] "r"(sepc));
 1435              		.loc 2 139 77 is_stmt 0
 1436              	# 139 "src/handleSupervisorTrap.cpp" 1
 1437              		csrw sepc, s1
 1438              	# 0 "" 2
 1439              	#NO_APP
 1440              	.LBE46:
 1441 05a8 6FF0DFFB 		j	.L65
 1442              	.LVL72:
 1443              	.L75:
 1444              	.LBE47:
 1445              	.LBE48:
 1446              	.LBE49:
 1447              	.LBE50:
 1448              	.LBB51:
 1449              	.LBB41:
 146:src/handleSupervisorTrap.cpp ****         uint64 sepc = r_sepc();
 1450              		.loc 2 146 9 is_stmt 1
 146:src/handleSupervisorTrap.cpp ****         uint64 sepc = r_sepc();
 1451              		.loc 2 146 29 is_stmt 0
 1452 05ac 97000000 		call	_Z6r_sepcv
 1452      E7800000 
 1453              	.LVL73:
 1454 05b4 93040500 		mv	s1,a0
 1455              	.LVL74:
 147:src/handleSupervisorTrap.cpp ****         uint64 sstatus = r_sstatus();
 1456              		.loc 2 147 9 is_stmt 1
 147:src/handleSupervisorTrap.cpp ****         uint64 sstatus = r_sstatus();
 1457              		.loc 2 147 35 is_stmt 0
 1458 05b8 97000000 		call	_Z9r_sstatusv
 1458      E7800000 
 1459              	.LVL75:
 1460 05c0 13090500 		mv	s2,a0
 1461              	.LVL76:
 148:src/handleSupervisorTrap.cpp ****         console_handler();
 1462              		.loc 2 148 9 is_stmt 1
 148:src/handleSupervisorTrap.cpp ****         console_handler();
 1463              		.loc 2 148 24 is_stmt 0
 1464 05c4 97000000 		call	console_handler@plt
 1464      E7800000 
 1465              	.LVL77:
 1466              	.LEHE4:
 149:src/handleSupervisorTrap.cpp ****         __asm__ volatile ("csrw sstatus, %[sstatus]" : : [sstatus] "r"(sstatus));
 1467              		.loc 2 149 9 is_stmt 1
 149:src/handleSupervisorTrap.cpp ****         __asm__ volatile ("csrw sstatus, %[sstatus]" : : [sstatus] "r"(sstatus));
 1468              		.loc 2 149 81 is_stmt 0
 1469              	#APP
 1470              	# 149 "src/handleSupervisorTrap.cpp" 1
GAS LISTING /tmp/ccSNmVrS.s 			page 36


 150:src/handleSupervisorTrap.cpp ****         __asm__ volatile ("csrw sepc, %[sepc]" : : [sepc] "r"(sepc));
 1471              		csrw sstatus, s2
 1472              	# 0 "" 2
 1473              		.loc 2 150 9 is_stmt 1
 150:src/handleSupervisorTrap.cpp ****         __asm__ volatile ("csrw sepc, %[sepc]" : : [sepc] "r"(sepc));
 1474              		.loc 2 150 69 is_stmt 0
 1475              	# 150 "src/handleSupervisorTrap.cpp" 1
 1476              		csrw sepc, s1
 1477              	# 0 "" 2
 1478              	#NO_APP
 1479              	.LBE41:
 1480 05d4 6FF09FDA 		j	.L41
 1481              	.LVL78:
 1482              	.L70:
 1483 05d8 13090500 		mv	s2,a0
 1484              	.LVL79:
 1485              	.LBE51:
 1486              	.LBE87:
 1487              	.LBB88:
 1488              	.LBB85:
 1489              	.LBB83:
 1490              	.LBB80:
 1491              	.LBB63:
 1492              	.LBB64:
  42:src/../h/PCB.hpp ****     }
  43:src/../h/PCB.hpp **** 
  44:src/../h/PCB.hpp ****     static void operator delete (void* addr) {
  45:src/../h/PCB.hpp ****         MemoryAllocator::deallocate(addr);
 1493              		.loc 3 45 9 is_stmt 1
 1494              		.loc 3 45 36 is_stmt 0
 1495 05dc 13850400 		mv	a0,s1
 1496 05e0 97000000 		call	_ZN15MemoryAllocator10deallocateEPv@plt
 1496      E7800000 
 1497              	.LVL80:
 1498 05e8 13050900 		mv	a0,s2
 1499              	.LEHB5:
 1500 05ec 97000000 		call	_Unwind_Resume@plt
 1500      E7800000 
 1501              	.LVL81:
 1502              	.LEHE5:
 1503              	.L71:
 1504 05f4 13090500 		mv	s2,a0
 1505              	.LVL82:
 1506              	.LBE64:
 1507              	.LBE63:
 1508              	.LBE80:
 1509              	.LBB81:
 1510              	.LBB71:
 1511              	.LBB72:
 1512              		.loc 4 21 9 is_stmt 1
 1513              		.loc 4 21 36 is_stmt 0
 1514 05f8 13850400 		mv	a0,s1
 1515 05fc 97000000 		call	_ZN15MemoryAllocator10deallocateEPv@plt
 1515      E7800000 
 1516              	.LVL83:
 1517 0604 13050900 		mv	a0,s2
 1518              	.LEHB6:
GAS LISTING /tmp/ccSNmVrS.s 			page 37


 1519 0608 97000000 		call	_Unwind_Resume@plt
 1519      E7800000 
 1520              	.LVL84:
 1521              	.LEHE6:
 1522              	.LBE72:
 1523              	.LBE71:
 1524              	.LBE81:
 1525              	.LBE83:
 1526              	.LBE85:
 1527              	.LBE88:
 1528              	.LBE92:
 1529              		.cfi_endproc
 1530              	.LFE25:
 1531              		.globl	__gxx_personality_v0
 1532              		.section	.gcc_except_table,"a",@progbits
 1533              	.LLSDA25:
 1534 0000 FF       		.byte	0xff
 1535 0001 FF       		.byte	0xff
 1536 0002 03       		.byte	0x3
 1537 0003 5B       		.byte	0x5b
 1538 0004 00000000 		.4byte	.LEHB0-.LFB25
 1539 0008 00000000 		.4byte	.LEHE0-.LEHB0
 1540 000c 00000000 		.4byte	0
 1541 0010 00       		.byte	0
 1542 0011 00000000 		.4byte	.LEHB1-.LFB25
 1543 0015 00000000 		.4byte	.LEHE1-.LEHB1
 1544 0019 00000000 		.4byte	.L70-.LFB25
 1545 001d 00       		.byte	0
 1546 001e 00000000 		.4byte	.LEHB2-.LFB25
 1547 0022 00000000 		.4byte	.LEHE2-.LEHB2
 1548 0026 00000000 		.4byte	0
 1549 002a 00       		.byte	0
 1550 002b 00000000 		.4byte	.LEHB3-.LFB25
 1551 002f 00000000 		.4byte	.LEHE3-.LEHB3
 1552 0033 00000000 		.4byte	.L71-.LFB25
 1553 0037 00       		.byte	0
 1554 0038 00000000 		.4byte	.LEHB4-.LFB25
 1555 003c 00000000 		.4byte	.LEHE4-.LEHB4
 1556 0040 00000000 		.4byte	0
 1557 0044 00       		.byte	0
 1558 0045 00000000 		.4byte	.LEHB5-.LFB25
 1559 0049 00000000 		.4byte	.LEHE5-.LEHB5
 1560 004d 00000000 		.4byte	0
 1561 0051 00       		.byte	0
 1562 0052 00000000 		.4byte	.LEHB6-.LFB25
 1563 0056 00000000 		.4byte	.LEHE6-.LEHB6
 1564 005a 00000000 		.4byte	0
 1565 005e 00       		.byte	0
 1566              		.text
 1568              	.Letext0:
 1569              		.file 5 "src/../h/syscall_c.hpp"
 1570              		.file 6 "src/../h/../lib/hw.h"
 1571              		.file 7 "src/../h/../h/MemoryAllocator.hpp"
 1572              		.file 8 "src/../lib/console.h"
 1573              		.file 9 "src/../test/printing.hpp"
 4994              		.align	3
 4997              	DW.ref.__gxx_personality_v0:
GAS LISTING /tmp/ccSNmVrS.s 			page 38


 4998 0000 00000000 		.dword	__gxx_personality_v0
 4998      00000000 
 4999              		.ident	"GCC: (Ubuntu 9.4.0-1ubuntu1~20.04) 9.4.0"
 5000              		.section	.note.GNU-stack,"",@progbits
GAS LISTING /tmp/ccSNmVrS.s 			page 39


DEFINED SYMBOLS
                            *ABS*:0000000000000000 handleSupervisorTrap.cpp
     /tmp/ccSNmVrS.s:9      .text:0000000000000000 _Z8r_scausev
     /tmp/ccSNmVrS.s:13     .text:0000000000000000 .L0 
     /tmp/ccSNmVrS.s:14     .text:0000000000000000 .L0 
     /tmp/ccSNmVrS.s:15     .text:0000000000000004 .L0 
     /tmp/ccSNmVrS.s:17     .text:0000000000000008 .L0 
     /tmp/ccSNmVrS.s:19     .text:000000000000000c .L0 
     /tmp/ccSNmVrS.s:21     .text:000000000000000c .L0 
     /tmp/ccSNmVrS.s:22     .text:000000000000000c .L0 
src/../h/asm_to_c.hpp:13     .text:000000000000000c .L0 
     /tmp/ccSNmVrS.s:30     .text:0000000000000014 .L0 
     /tmp/ccSNmVrS.s:31     .text:0000000000000014 .L0 
     /tmp/ccSNmVrS.s:33     .text:0000000000000018 .L0 
     /tmp/ccSNmVrS.s:34     .text:000000000000001c .L0 
     /tmp/ccSNmVrS.s:35     .text:000000000000001c .L0 
     /tmp/ccSNmVrS.s:37     .text:0000000000000020 .L0 
     /tmp/ccSNmVrS.s:39     .text:0000000000000024 .L0 
     /tmp/ccSNmVrS.s:45     .text:0000000000000024 _Z8w_scausem
     /tmp/ccSNmVrS.s:48     .text:0000000000000024 .L0 
     /tmp/ccSNmVrS.s:50     .text:0000000000000024 .L0 
     /tmp/ccSNmVrS.s:51     .text:0000000000000028 .L0 
     /tmp/ccSNmVrS.s:53     .text:000000000000002c .L0 
     /tmp/ccSNmVrS.s:55     .text:0000000000000030 .L0 
     /tmp/ccSNmVrS.s:57     .text:0000000000000030 .L0 
src/../h/asm_to_c.hpp:18     .text:0000000000000030 .L0 
     /tmp/ccSNmVrS.s:64     .text:0000000000000034 .L0 
     /tmp/ccSNmVrS.s:65     .text:0000000000000038 .L0 
     /tmp/ccSNmVrS.s:66     .text:0000000000000038 .L0 
     /tmp/ccSNmVrS.s:68     .text:000000000000003c .L0 
     /tmp/ccSNmVrS.s:70     .text:0000000000000040 .L0 
     /tmp/ccSNmVrS.s:76     .text:0000000000000040 _Z6r_sepcv
     /tmp/ccSNmVrS.s:79     .text:0000000000000040 .L0 
     /tmp/ccSNmVrS.s:80     .text:0000000000000040 .L0 
     /tmp/ccSNmVrS.s:81     .text:0000000000000044 .L0 
     /tmp/ccSNmVrS.s:83     .text:0000000000000048 .L0 
     /tmp/ccSNmVrS.s:85     .text:000000000000004c .L0 
     /tmp/ccSNmVrS.s:87     .text:000000000000004c .L0 
     /tmp/ccSNmVrS.s:88     .text:000000000000004c .L0 
src/../h/asm_to_c.hpp:23     .text:000000000000004c .L0 
     /tmp/ccSNmVrS.s:96     .text:0000000000000054 .L0 
     /tmp/ccSNmVrS.s:97     .text:0000000000000054 .L0 
     /tmp/ccSNmVrS.s:99     .text:0000000000000058 .L0 
     /tmp/ccSNmVrS.s:100    .text:000000000000005c .L0 
     /tmp/ccSNmVrS.s:101    .text:000000000000005c .L0 
     /tmp/ccSNmVrS.s:103    .text:0000000000000060 .L0 
     /tmp/ccSNmVrS.s:105    .text:0000000000000064 .L0 
     /tmp/ccSNmVrS.s:111    .text:0000000000000064 _Z6w_sepcm
     /tmp/ccSNmVrS.s:114    .text:0000000000000064 .L0 
     /tmp/ccSNmVrS.s:116    .text:0000000000000064 .L0 
     /tmp/ccSNmVrS.s:117    .text:0000000000000068 .L0 
     /tmp/ccSNmVrS.s:119    .text:000000000000006c .L0 
     /tmp/ccSNmVrS.s:121    .text:0000000000000070 .L0 
     /tmp/ccSNmVrS.s:123    .text:0000000000000070 .L0 
src/../h/asm_to_c.hpp:28     .text:0000000000000070 .L0 
     /tmp/ccSNmVrS.s:130    .text:0000000000000074 .L0 
     /tmp/ccSNmVrS.s:131    .text:0000000000000078 .L0 
GAS LISTING /tmp/ccSNmVrS.s 			page 40


     /tmp/ccSNmVrS.s:132    .text:0000000000000078 .L0 
     /tmp/ccSNmVrS.s:134    .text:000000000000007c .L0 
     /tmp/ccSNmVrS.s:136    .text:0000000000000080 .L0 
     /tmp/ccSNmVrS.s:142    .text:0000000000000080 _Z7r_stvecv
     /tmp/ccSNmVrS.s:145    .text:0000000000000080 .L0 
     /tmp/ccSNmVrS.s:146    .text:0000000000000080 .L0 
     /tmp/ccSNmVrS.s:147    .text:0000000000000084 .L0 
     /tmp/ccSNmVrS.s:149    .text:0000000000000088 .L0 
     /tmp/ccSNmVrS.s:151    .text:000000000000008c .L0 
     /tmp/ccSNmVrS.s:153    .text:000000000000008c .L0 
     /tmp/ccSNmVrS.s:154    .text:000000000000008c .L0 
src/../h/asm_to_c.hpp:33     .text:000000000000008c .L0 
     /tmp/ccSNmVrS.s:162    .text:0000000000000094 .L0 
     /tmp/ccSNmVrS.s:163    .text:0000000000000094 .L0 
     /tmp/ccSNmVrS.s:165    .text:0000000000000098 .L0 
     /tmp/ccSNmVrS.s:166    .text:000000000000009c .L0 
     /tmp/ccSNmVrS.s:167    .text:000000000000009c .L0 
     /tmp/ccSNmVrS.s:169    .text:00000000000000a0 .L0 
     /tmp/ccSNmVrS.s:171    .text:00000000000000a4 .L0 
     /tmp/ccSNmVrS.s:177    .text:00000000000000a4 _Z7w_stvecm
     /tmp/ccSNmVrS.s:180    .text:00000000000000a4 .L0 
     /tmp/ccSNmVrS.s:182    .text:00000000000000a4 .L0 
     /tmp/ccSNmVrS.s:183    .text:00000000000000a8 .L0 
     /tmp/ccSNmVrS.s:185    .text:00000000000000ac .L0 
     /tmp/ccSNmVrS.s:187    .text:00000000000000b0 .L0 
     /tmp/ccSNmVrS.s:189    .text:00000000000000b0 .L0 
src/../h/asm_to_c.hpp:38     .text:00000000000000b0 .L0 
     /tmp/ccSNmVrS.s:196    .text:00000000000000b4 .L0 
     /tmp/ccSNmVrS.s:197    .text:00000000000000b8 .L0 
     /tmp/ccSNmVrS.s:198    .text:00000000000000b8 .L0 
     /tmp/ccSNmVrS.s:200    .text:00000000000000bc .L0 
     /tmp/ccSNmVrS.s:202    .text:00000000000000c0 .L0 
     /tmp/ccSNmVrS.s:208    .text:00000000000000c0 _Z7r_stvalv
     /tmp/ccSNmVrS.s:211    .text:00000000000000c0 .L0 
     /tmp/ccSNmVrS.s:212    .text:00000000000000c0 .L0 
     /tmp/ccSNmVrS.s:213    .text:00000000000000c4 .L0 
     /tmp/ccSNmVrS.s:215    .text:00000000000000c8 .L0 
     /tmp/ccSNmVrS.s:217    .text:00000000000000cc .L0 
     /tmp/ccSNmVrS.s:219    .text:00000000000000cc .L0 
     /tmp/ccSNmVrS.s:220    .text:00000000000000cc .L0 
src/../h/asm_to_c.hpp:43     .text:00000000000000cc .L0 
     /tmp/ccSNmVrS.s:228    .text:00000000000000d4 .L0 
     /tmp/ccSNmVrS.s:229    .text:00000000000000d4 .L0 
     /tmp/ccSNmVrS.s:231    .text:00000000000000d8 .L0 
     /tmp/ccSNmVrS.s:232    .text:00000000000000dc .L0 
     /tmp/ccSNmVrS.s:233    .text:00000000000000dc .L0 
     /tmp/ccSNmVrS.s:235    .text:00000000000000e0 .L0 
     /tmp/ccSNmVrS.s:237    .text:00000000000000e4 .L0 
     /tmp/ccSNmVrS.s:243    .text:00000000000000e4 _Z7w_stvalm
     /tmp/ccSNmVrS.s:246    .text:00000000000000e4 .L0 
     /tmp/ccSNmVrS.s:248    .text:00000000000000e4 .L0 
     /tmp/ccSNmVrS.s:249    .text:00000000000000e8 .L0 
     /tmp/ccSNmVrS.s:251    .text:00000000000000ec .L0 
     /tmp/ccSNmVrS.s:253    .text:00000000000000f0 .L0 
     /tmp/ccSNmVrS.s:255    .text:00000000000000f0 .L0 
src/../h/asm_to_c.hpp:48     .text:00000000000000f0 .L0 
     /tmp/ccSNmVrS.s:262    .text:00000000000000f4 .L0 
GAS LISTING /tmp/ccSNmVrS.s 			page 41


     /tmp/ccSNmVrS.s:263    .text:00000000000000f8 .L0 
     /tmp/ccSNmVrS.s:264    .text:00000000000000f8 .L0 
     /tmp/ccSNmVrS.s:266    .text:00000000000000fc .L0 
     /tmp/ccSNmVrS.s:268    .text:0000000000000100 .L0 
     /tmp/ccSNmVrS.s:274    .text:0000000000000100 _Z6ms_sipm
     /tmp/ccSNmVrS.s:277    .text:0000000000000100 .L0 
     /tmp/ccSNmVrS.s:279    .text:0000000000000100 .L0 
     /tmp/ccSNmVrS.s:280    .text:0000000000000104 .L0 
     /tmp/ccSNmVrS.s:282    .text:0000000000000108 .L0 
     /tmp/ccSNmVrS.s:284    .text:000000000000010c .L0 
     /tmp/ccSNmVrS.s:286    .text:000000000000010c .L0 
src/../h/asm_to_c.hpp:52     .text:000000000000010c .L0 
     /tmp/ccSNmVrS.s:293    .text:0000000000000110 .L0 
     /tmp/ccSNmVrS.s:294    .text:0000000000000114 .L0 
     /tmp/ccSNmVrS.s:295    .text:0000000000000114 .L0 
     /tmp/ccSNmVrS.s:297    .text:0000000000000118 .L0 
     /tmp/ccSNmVrS.s:299    .text:000000000000011c .L0 
     /tmp/ccSNmVrS.s:305    .text:000000000000011c _Z6mc_sipm
     /tmp/ccSNmVrS.s:308    .text:000000000000011c .L0 
     /tmp/ccSNmVrS.s:310    .text:000000000000011c .L0 
     /tmp/ccSNmVrS.s:311    .text:0000000000000120 .L0 
     /tmp/ccSNmVrS.s:313    .text:0000000000000124 .L0 
     /tmp/ccSNmVrS.s:315    .text:0000000000000128 .L0 
     /tmp/ccSNmVrS.s:317    .text:0000000000000128 .L0 
src/../h/asm_to_c.hpp:56     .text:0000000000000128 .L0 
     /tmp/ccSNmVrS.s:324    .text:000000000000012c .L0 
     /tmp/ccSNmVrS.s:325    .text:0000000000000130 .L0 
     /tmp/ccSNmVrS.s:326    .text:0000000000000130 .L0 
     /tmp/ccSNmVrS.s:328    .text:0000000000000134 .L0 
     /tmp/ccSNmVrS.s:330    .text:0000000000000138 .L0 
     /tmp/ccSNmVrS.s:336    .text:0000000000000138 _Z5r_sipv
     /tmp/ccSNmVrS.s:339    .text:0000000000000138 .L0 
     /tmp/ccSNmVrS.s:340    .text:0000000000000138 .L0 
     /tmp/ccSNmVrS.s:341    .text:000000000000013c .L0 
     /tmp/ccSNmVrS.s:343    .text:0000000000000140 .L0 
     /tmp/ccSNmVrS.s:345    .text:0000000000000144 .L0 
     /tmp/ccSNmVrS.s:347    .text:0000000000000144 .L0 
     /tmp/ccSNmVrS.s:348    .text:0000000000000144 .L0 
src/../h/asm_to_c.hpp:61     .text:0000000000000144 .L0 
     /tmp/ccSNmVrS.s:356    .text:000000000000014c .L0 
     /tmp/ccSNmVrS.s:357    .text:000000000000014c .L0 
     /tmp/ccSNmVrS.s:359    .text:0000000000000150 .L0 
     /tmp/ccSNmVrS.s:360    .text:0000000000000154 .L0 
     /tmp/ccSNmVrS.s:361    .text:0000000000000154 .L0 
     /tmp/ccSNmVrS.s:363    .text:0000000000000158 .L0 
     /tmp/ccSNmVrS.s:365    .text:000000000000015c .L0 
     /tmp/ccSNmVrS.s:371    .text:000000000000015c _Z5w_sipm
     /tmp/ccSNmVrS.s:374    .text:000000000000015c .L0 
     /tmp/ccSNmVrS.s:376    .text:000000000000015c .L0 
     /tmp/ccSNmVrS.s:377    .text:0000000000000160 .L0 
     /tmp/ccSNmVrS.s:379    .text:0000000000000164 .L0 
     /tmp/ccSNmVrS.s:381    .text:0000000000000168 .L0 
     /tmp/ccSNmVrS.s:383    .text:0000000000000168 .L0 
src/../h/asm_to_c.hpp:66     .text:0000000000000168 .L0 
     /tmp/ccSNmVrS.s:390    .text:000000000000016c .L0 
     /tmp/ccSNmVrS.s:391    .text:0000000000000170 .L0 
     /tmp/ccSNmVrS.s:392    .text:0000000000000170 .L0 
GAS LISTING /tmp/ccSNmVrS.s 			page 42


     /tmp/ccSNmVrS.s:394    .text:0000000000000174 .L0 
     /tmp/ccSNmVrS.s:396    .text:0000000000000178 .L0 
     /tmp/ccSNmVrS.s:402    .text:0000000000000178 _Z10ms_sstatusm
     /tmp/ccSNmVrS.s:405    .text:0000000000000178 .L0 
     /tmp/ccSNmVrS.s:407    .text:0000000000000178 .L0 
     /tmp/ccSNmVrS.s:408    .text:000000000000017c .L0 
     /tmp/ccSNmVrS.s:410    .text:0000000000000180 .L0 
     /tmp/ccSNmVrS.s:412    .text:0000000000000184 .L0 
     /tmp/ccSNmVrS.s:414    .text:0000000000000184 .L0 
src/../h/asm_to_c.hpp:70     .text:0000000000000184 .L0 
     /tmp/ccSNmVrS.s:421    .text:0000000000000188 .L0 
     /tmp/ccSNmVrS.s:422    .text:000000000000018c .L0 
     /tmp/ccSNmVrS.s:423    .text:000000000000018c .L0 
     /tmp/ccSNmVrS.s:425    .text:0000000000000190 .L0 
     /tmp/ccSNmVrS.s:427    .text:0000000000000194 .L0 
     /tmp/ccSNmVrS.s:433    .text:0000000000000194 _Z10mc_sstatusm
     /tmp/ccSNmVrS.s:436    .text:0000000000000194 .L0 
     /tmp/ccSNmVrS.s:438    .text:0000000000000194 .L0 
     /tmp/ccSNmVrS.s:439    .text:0000000000000198 .L0 
     /tmp/ccSNmVrS.s:441    .text:000000000000019c .L0 
     /tmp/ccSNmVrS.s:443    .text:00000000000001a0 .L0 
     /tmp/ccSNmVrS.s:445    .text:00000000000001a0 .L0 
src/../h/asm_to_c.hpp:74     .text:00000000000001a0 .L0 
     /tmp/ccSNmVrS.s:452    .text:00000000000001a4 .L0 
     /tmp/ccSNmVrS.s:453    .text:00000000000001a8 .L0 
     /tmp/ccSNmVrS.s:454    .text:00000000000001a8 .L0 
     /tmp/ccSNmVrS.s:456    .text:00000000000001ac .L0 
     /tmp/ccSNmVrS.s:458    .text:00000000000001b0 .L0 
     /tmp/ccSNmVrS.s:464    .text:00000000000001b0 _Z9r_sstatusv
     /tmp/ccSNmVrS.s:467    .text:00000000000001b0 .L0 
     /tmp/ccSNmVrS.s:468    .text:00000000000001b0 .L0 
     /tmp/ccSNmVrS.s:469    .text:00000000000001b4 .L0 
     /tmp/ccSNmVrS.s:471    .text:00000000000001b8 .L0 
     /tmp/ccSNmVrS.s:473    .text:00000000000001bc .L0 
     /tmp/ccSNmVrS.s:475    .text:00000000000001bc .L0 
     /tmp/ccSNmVrS.s:476    .text:00000000000001bc .L0 
src/../h/asm_to_c.hpp:79     .text:00000000000001bc .L0 
     /tmp/ccSNmVrS.s:484    .text:00000000000001c4 .L0 
     /tmp/ccSNmVrS.s:485    .text:00000000000001c4 .L0 
     /tmp/ccSNmVrS.s:487    .text:00000000000001c8 .L0 
     /tmp/ccSNmVrS.s:488    .text:00000000000001cc .L0 
     /tmp/ccSNmVrS.s:489    .text:00000000000001cc .L0 
     /tmp/ccSNmVrS.s:491    .text:00000000000001d0 .L0 
     /tmp/ccSNmVrS.s:493    .text:00000000000001d4 .L0 
     /tmp/ccSNmVrS.s:499    .text:00000000000001d4 _Z9w_sstatusm
     /tmp/ccSNmVrS.s:502    .text:00000000000001d4 .L0 
     /tmp/ccSNmVrS.s:504    .text:00000000000001d4 .L0 
     /tmp/ccSNmVrS.s:505    .text:00000000000001d8 .L0 
     /tmp/ccSNmVrS.s:507    .text:00000000000001dc .L0 
     /tmp/ccSNmVrS.s:509    .text:00000000000001e0 .L0 
     /tmp/ccSNmVrS.s:511    .text:00000000000001e0 .L0 
src/../h/asm_to_c.hpp:84     .text:00000000000001e0 .L0 
     /tmp/ccSNmVrS.s:518    .text:00000000000001e4 .L0 
     /tmp/ccSNmVrS.s:519    .text:00000000000001e8 .L0 
     /tmp/ccSNmVrS.s:520    .text:00000000000001e8 .L0 
     /tmp/ccSNmVrS.s:522    .text:00000000000001ec .L0 
     /tmp/ccSNmVrS.s:524    .text:00000000000001f0 .L0 
GAS LISTING /tmp/ccSNmVrS.s 			page 43


     /tmp/ccSNmVrS.s:530    .text:00000000000001f0 _Z6ms_siem
     /tmp/ccSNmVrS.s:533    .text:00000000000001f0 .L0 
     /tmp/ccSNmVrS.s:535    .text:00000000000001f0 .L0 
     /tmp/ccSNmVrS.s:536    .text:00000000000001f4 .L0 
     /tmp/ccSNmVrS.s:538    .text:00000000000001f8 .L0 
     /tmp/ccSNmVrS.s:540    .text:00000000000001fc .L0 
     /tmp/ccSNmVrS.s:542    .text:00000000000001fc .L0 
src/../h/asm_to_c.hpp:88     .text:00000000000001fc .L0 
     /tmp/ccSNmVrS.s:549    .text:0000000000000200 .L0 
     /tmp/ccSNmVrS.s:550    .text:0000000000000204 .L0 
     /tmp/ccSNmVrS.s:551    .text:0000000000000204 .L0 
     /tmp/ccSNmVrS.s:553    .text:0000000000000208 .L0 
     /tmp/ccSNmVrS.s:555    .text:000000000000020c .L0 
     /tmp/ccSNmVrS.s:561    .text:000000000000020c _Z6mc_siem
     /tmp/ccSNmVrS.s:564    .text:000000000000020c .L0 
     /tmp/ccSNmVrS.s:566    .text:000000000000020c .L0 
     /tmp/ccSNmVrS.s:567    .text:0000000000000210 .L0 
     /tmp/ccSNmVrS.s:569    .text:0000000000000214 .L0 
     /tmp/ccSNmVrS.s:571    .text:0000000000000218 .L0 
     /tmp/ccSNmVrS.s:573    .text:0000000000000218 .L0 
src/../h/asm_to_c.hpp:92     .text:0000000000000218 .L0 
     /tmp/ccSNmVrS.s:580    .text:000000000000021c .L0 
     /tmp/ccSNmVrS.s:581    .text:0000000000000220 .L0 
     /tmp/ccSNmVrS.s:582    .text:0000000000000220 .L0 
     /tmp/ccSNmVrS.s:584    .text:0000000000000224 .L0 
     /tmp/ccSNmVrS.s:586    .text:0000000000000228 .L0 
     /tmp/ccSNmVrS.s:592    .text:0000000000000228 _Z4r_a0v
     /tmp/ccSNmVrS.s:595    .text:0000000000000228 .L0 
     /tmp/ccSNmVrS.s:596    .text:0000000000000228 .L0 
     /tmp/ccSNmVrS.s:597    .text:000000000000022c .L0 
     /tmp/ccSNmVrS.s:599    .text:0000000000000230 .L0 
     /tmp/ccSNmVrS.s:601    .text:0000000000000234 .L0 
     /tmp/ccSNmVrS.s:603    .text:0000000000000234 .L0 
     /tmp/ccSNmVrS.s:604    .text:0000000000000234 .L0 
src/../h/asm_to_c.hpp:97     .text:0000000000000234 .L0 
     /tmp/ccSNmVrS.s:612    .text:000000000000023c .L0 
     /tmp/ccSNmVrS.s:613    .text:000000000000023c .L0 
     /tmp/ccSNmVrS.s:615    .text:0000000000000240 .L0 
     /tmp/ccSNmVrS.s:616    .text:0000000000000244 .L0 
     /tmp/ccSNmVrS.s:617    .text:0000000000000244 .L0 
     /tmp/ccSNmVrS.s:619    .text:0000000000000248 .L0 
     /tmp/ccSNmVrS.s:621    .text:000000000000024c .L0 
     /tmp/ccSNmVrS.s:627    .text:000000000000024c _Z4w_a0m
     /tmp/ccSNmVrS.s:630    .text:000000000000024c .L0 
     /tmp/ccSNmVrS.s:632    .text:000000000000024c .L0 
     /tmp/ccSNmVrS.s:633    .text:0000000000000250 .L0 
     /tmp/ccSNmVrS.s:635    .text:0000000000000254 .L0 
     /tmp/ccSNmVrS.s:637    .text:0000000000000258 .L0 
     /tmp/ccSNmVrS.s:639    .text:0000000000000258 .L0 
src/../h/asm_to_c.hpp:103    .text:0000000000000258 .L0 
     /tmp/ccSNmVrS.s:646    .text:000000000000025c .L0 
     /tmp/ccSNmVrS.s:647    .text:0000000000000260 .L0 
     /tmp/ccSNmVrS.s:648    .text:0000000000000260 .L0 
     /tmp/ccSNmVrS.s:650    .text:0000000000000264 .L0 
     /tmp/ccSNmVrS.s:652    .text:0000000000000268 .L0 
     /tmp/ccSNmVrS.s:666    .text:0000000000000268 handleSupervisorTrap
     /tmp/ccSNmVrS.s:670    .text:0000000000000268 .L0 
GAS LISTING /tmp/ccSNmVrS.s 			page 44


     /tmp/ccSNmVrS.s:4997   .data.rel.local.DW.ref.__gxx_personality_v0:0000000000000000 DW.ref.__gxx_personality_v0
     /tmp/ccSNmVrS.s:673    .text:0000000000000268 .L0 
     /tmp/ccSNmVrS.s:674    .text:000000000000026c .L0 
     /tmp/ccSNmVrS.s:681    .text:0000000000000284 .L0 
     /tmp/ccSNmVrS.s:682    .text:0000000000000284 .L0 
     /tmp/ccSNmVrS.s:683    .text:0000000000000284 .L0 
     /tmp/ccSNmVrS.s:684    .text:0000000000000284 .L0 
     /tmp/ccSNmVrS.s:685    .text:0000000000000284 .L0 
     /tmp/ccSNmVrS.s:686    .text:0000000000000284 .L0 
     /tmp/ccSNmVrS.s:688    .text:0000000000000288 .L0 
     /tmp/ccSNmVrS.s:690    .text:0000000000000288 .L0 
     /tmp/ccSNmVrS.s:691    .text:0000000000000288 .L0 
src/handleSupervisorTrap.cpp:13     .text:0000000000000288 .L0 
     /tmp/ccSNmVrS.s:700    .text:0000000000000290 .L0 
     /tmp/ccSNmVrS.s:701    .text:0000000000000290 .L0 
     /tmp/ccSNmVrS.s:703    .text:0000000000000294 .L0 
     /tmp/ccSNmVrS.s:706    .text:000000000000029c .L0 
     /tmp/ccSNmVrS.s:708    .text:00000000000002a0 .L0 
     /tmp/ccSNmVrS.s:714    .text:00000000000002a8 .L0 
     /tmp/ccSNmVrS.s:715    .text:00000000000002a8 .L0 
     /tmp/ccSNmVrS.s:717    .text:00000000000002ac .L0 
     /tmp/ccSNmVrS.s:727    .text:00000000000002bc .L0 
     /tmp/ccSNmVrS.s:728    .text:00000000000002bc .L0 
     /tmp/ccSNmVrS.s:730    .text:00000000000002c0 .L0 
     /tmp/ccSNmVrS.s:735    .text:00000000000002d0 .L0 
     /tmp/ccSNmVrS.s:736    .text:00000000000002d0 .L0 
     /tmp/ccSNmVrS.s:741    .text:00000000000002e0 .L0 
     /tmp/ccSNmVrS.s:742    .text:00000000000002e0 .L0 
     /tmp/ccSNmVrS.s:749    .text:00000000000002f8 .L0 
     /tmp/ccSNmVrS.s:750    .text:00000000000002f8 .L0 
     /tmp/ccSNmVrS.s:757    .text:0000000000000308 .L0 
     /tmp/ccSNmVrS.s:762    .text:000000000000030c .L0 
     /tmp/ccSNmVrS.s:763    .text:000000000000030c .L0 
     /tmp/ccSNmVrS.s:766    .text:0000000000000314 .L0 
     /tmp/ccSNmVrS.s:768    .text:0000000000000318 .L0 
     /tmp/ccSNmVrS.s:769    .text:0000000000000318 .L0 
     /tmp/ccSNmVrS.s:772    .text:0000000000000320 .L0 
     /tmp/ccSNmVrS.s:774    .text:0000000000000324 .L0 
     /tmp/ccSNmVrS.s:776    .text:0000000000000328 .L0 
     /tmp/ccSNmVrS.s:777    .text:0000000000000328 .L0 
     /tmp/ccSNmVrS.s:780    .text:0000000000000330 .L0 
     /tmp/ccSNmVrS.s:783    .text:0000000000000334 .L0 
     /tmp/ccSNmVrS.s:784    .text:0000000000000334 .L0 
     /tmp/ccSNmVrS.s:868    .text:000000000000035c .L0 
     /tmp/ccSNmVrS.s:870    .text:000000000000035c .L0 
     /tmp/ccSNmVrS.s:872    .text:000000000000035c .L0 
     /tmp/ccSNmVrS.s:873    .text:000000000000035c .L0 
src/handleSupervisorTrap.cpp:23     .text:000000000000035c .L0 
     /tmp/ccSNmVrS.s:880    .text:0000000000000360 .L0 
     /tmp/ccSNmVrS.s:882    .text:0000000000000360 .L0 
     /tmp/ccSNmVrS.s:885    .text:0000000000000368 .L0 
src/handleSupervisorTrap.cpp:25     .text:0000000000000368 .L0 
     /tmp/ccSNmVrS.s:895    .text:000000000000036c .L0 
     /tmp/ccSNmVrS.s:898    .text:000000000000036c .L0 
     /tmp/ccSNmVrS.s:899    .text:000000000000036c .L0 
     /tmp/ccSNmVrS.s:900    .text:000000000000036c .L0 
src/handleSupervisorTrap.cpp:125    .text:0000000000000370 .L0 
GAS LISTING /tmp/ccSNmVrS.s 			page 45


     /tmp/ccSNmVrS.s:907    .text:0000000000000374 .L0 
     /tmp/ccSNmVrS.s:909    .text:0000000000000374 .L0 
src/handleSupervisorTrap.cpp:126    .text:0000000000000378 .L0 
     /tmp/ccSNmVrS.s:920    .text:000000000000037c .L0 
     /tmp/ccSNmVrS.s:921    .text:0000000000000380 .L0 
     /tmp/ccSNmVrS.s:922    .text:0000000000000380 .L0 
     /tmp/ccSNmVrS.s:924    .text:0000000000000384 .L0 
     /tmp/ccSNmVrS.s:925    .text:0000000000000384 .L0 
     /tmp/ccSNmVrS.s:927    .text:0000000000000388 .L0 
     /tmp/ccSNmVrS.s:929    .text:000000000000038c .L0 
     /tmp/ccSNmVrS.s:931    .text:0000000000000390 .L0 
     /tmp/ccSNmVrS.s:933    .text:0000000000000394 .L0 
     /tmp/ccSNmVrS.s:935    .text:0000000000000398 .L0 
     /tmp/ccSNmVrS.s:938    .text:000000000000039c .L0 
     /tmp/ccSNmVrS.s:944    .text:000000000000039c .L0 
     /tmp/ccSNmVrS.s:946    .text:000000000000039c .L0 
     /tmp/ccSNmVrS.s:947    .text:000000000000039c .L0 
     /tmp/ccSNmVrS.s:948    .text:000000000000039c .L0 
src/handleSupervisorTrap.cpp:30     .text:000000000000039c .L0 
     /tmp/ccSNmVrS.s:955    .text:00000000000003a0 .L0 
     /tmp/ccSNmVrS.s:957    .text:00000000000003a0 .L0 
     /tmp/ccSNmVrS.s:960    .text:00000000000003a8 .L0 
src/handleSupervisorTrap.cpp:32     .text:00000000000003a8 .L0 
     /tmp/ccSNmVrS.s:967    .text:00000000000003ac .L0 
     /tmp/ccSNmVrS.s:972    .text:00000000000003b0 .L0 
     /tmp/ccSNmVrS.s:974    .text:00000000000003b0 .L0 
     /tmp/ccSNmVrS.s:975    .text:00000000000003b0 .L0 
     /tmp/ccSNmVrS.s:976    .text:00000000000003b0 .L0 
     /tmp/ccSNmVrS.s:979    .text:00000000000003b8 .L0 
src/handleSupervisorTrap.cpp:37     .text:00000000000003b8 .L0 
     /tmp/ccSNmVrS.s:986    .text:00000000000003bc .L0 
     /tmp/ccSNmVrS.s:991    .text:00000000000003c0 .L0 
     /tmp/ccSNmVrS.s:993    .text:00000000000003c0 .L0 
     /tmp/ccSNmVrS.s:994    .text:00000000000003c0 .L0 
     /tmp/ccSNmVrS.s:995    .text:00000000000003c0 .L0 
     /tmp/ccSNmVrS.s:998    .text:00000000000003c8 .L0 
src/handleSupervisorTrap.cpp:42     .text:00000000000003c8 .L0 
     /tmp/ccSNmVrS.s:1005   .text:00000000000003cc .L0 
     /tmp/ccSNmVrS.s:1010   .text:00000000000003d0 .L0 
     /tmp/ccSNmVrS.s:1012   .text:00000000000003d0 .L0 
     /tmp/ccSNmVrS.s:1013   .text:00000000000003d0 .L0 
     /tmp/ccSNmVrS.s:1014   .text:00000000000003d0 .L0 
     /tmp/ccSNmVrS.s:1015   .text:00000000000003d0 .L0 
     /tmp/ccSNmVrS.s:1016   .text:00000000000003d0 .L0 
src/handleSupervisorTrap.cpp:49     .text:00000000000003d0 .L0 
     /tmp/ccSNmVrS.s:1023   .text:00000000000003d4 .L0 
src/handleSupervisorTrap.cpp:50     .text:00000000000003d4 .L0 
     /tmp/ccSNmVrS.s:1028   .text:00000000000003d8 .L0 
src/handleSupervisorTrap.cpp:51     .text:00000000000003d8 .L0 
     /tmp/ccSNmVrS.s:1038   .text:00000000000003dc .L0 
     /tmp/ccSNmVrS.s:1039   .text:00000000000003dc .L0 
     /tmp/ccSNmVrS.s:1040   .text:00000000000003dc .L0 
     /tmp/ccSNmVrS.s:1041   .text:00000000000003dc .L0 
     /tmp/ccSNmVrS.s:1050   .text:00000000000003ec .L0 
     /tmp/ccSNmVrS.s:1051   .text:00000000000003ec .L0 
     /tmp/ccSNmVrS.s:1059   .text:0000000000000400 .L0 
src/handleSupervisorTrap.cpp:53     .text:0000000000000400 .L0 
GAS LISTING /tmp/ccSNmVrS.s 			page 46


     /tmp/ccSNmVrS.s:1066   .text:0000000000000404 .L0 
     /tmp/ccSNmVrS.s:1071   .text:0000000000000408 .L0 
     /tmp/ccSNmVrS.s:1073   .text:0000000000000408 .L0 
     /tmp/ccSNmVrS.s:1075   .text:0000000000000408 .L0 
     /tmp/ccSNmVrS.s:1076   .text:0000000000000408 .L0 
     /tmp/ccSNmVrS.s:1079   .text:0000000000000410 .L0 
     /tmp/ccSNmVrS.s:1080   .text:0000000000000410 .L0 
     /tmp/ccSNmVrS.s:1081   .text:0000000000000410 .L0 
     /tmp/ccSNmVrS.s:1088   .text:0000000000000418 .L0 
     /tmp/ccSNmVrS.s:1093   .text:000000000000041c .L0 
     /tmp/ccSNmVrS.s:1095   .text:000000000000041c .L0 
     /tmp/ccSNmVrS.s:1096   .text:000000000000041c .L0 
     /tmp/ccSNmVrS.s:1097   .text:000000000000041c .L0 
     /tmp/ccSNmVrS.s:1100   .text:0000000000000424 .L0 
     /tmp/ccSNmVrS.s:1101   .text:0000000000000424 .L0 
     /tmp/ccSNmVrS.s:1102   .text:0000000000000424 .L0 
     /tmp/ccSNmVrS.s:1109   .text:000000000000042c .L0 
     /tmp/ccSNmVrS.s:1114   .text:0000000000000430 .L0 
     /tmp/ccSNmVrS.s:1116   .text:0000000000000430 .L0 
     /tmp/ccSNmVrS.s:1117   .text:0000000000000430 .L0 
     /tmp/ccSNmVrS.s:1118   .text:0000000000000430 .L0 
src/handleSupervisorTrap.cpp:70     .text:0000000000000430 .L0 
     /tmp/ccSNmVrS.s:1125   .text:0000000000000434 .L0 
     /tmp/ccSNmVrS.s:1127   .text:0000000000000434 .L0 
     /tmp/ccSNmVrS.s:1130   .text:000000000000043c .L0 
     /tmp/ccSNmVrS.s:1134   .text:0000000000000440 .L0 
     /tmp/ccSNmVrS.s:1136   .text:0000000000000440 .L0 
     /tmp/ccSNmVrS.s:1138   .text:0000000000000440 .L0 
     /tmp/ccSNmVrS.s:1139   .text:0000000000000440 .L0 
     /tmp/ccSNmVrS.s:1140   .text:0000000000000440 .L0 
src/handleSupervisorTrap.cpp:77     .text:0000000000000440 .L0 
     /tmp/ccSNmVrS.s:1147   .text:0000000000000444 .L0 
src/handleSupervisorTrap.cpp:78     .text:0000000000000444 .L0 
     /tmp/ccSNmVrS.s:1157   .text:0000000000000448 .L0 
     /tmp/ccSNmVrS.s:1158   .text:0000000000000448 .L0 
     /tmp/ccSNmVrS.s:1159   .text:0000000000000448 .L0 
     /tmp/ccSNmVrS.s:1160   .text:0000000000000448 .L0 
     /tmp/ccSNmVrS.s:1169   .text:0000000000000458 .L0 
     /tmp/ccSNmVrS.s:1170   .text:0000000000000458 .L0 
     /tmp/ccSNmVrS.s:1176   .text:0000000000000464 .L0 
     /tmp/ccSNmVrS.s:1178   .text:0000000000000468 .L0 
     /tmp/ccSNmVrS.s:1179   .text:0000000000000468 .L0 
     /tmp/ccSNmVrS.s:1181   .text:000000000000046c .L0 
     /tmp/ccSNmVrS.s:1185   .text:0000000000000470 .L0 
src/handleSupervisorTrap.cpp:81     .text:0000000000000470 .L0 
     /tmp/ccSNmVrS.s:1192   .text:0000000000000474 .L0 
     /tmp/ccSNmVrS.s:1196   .text:0000000000000478 .L0 
     /tmp/ccSNmVrS.s:1202   .text:0000000000000480 .L0 
     /tmp/ccSNmVrS.s:1204   .text:0000000000000480 .L0 
     /tmp/ccSNmVrS.s:1205   .text:0000000000000480 .L0 
     /tmp/ccSNmVrS.s:1206   .text:0000000000000480 .L0 
src/handleSupervisorTrap.cpp:86     .text:0000000000000480 .L0 
     /tmp/ccSNmVrS.s:1213   .text:0000000000000484 .L0 
     /tmp/ccSNmVrS.s:1215   .text:0000000000000484 .L0 
     /tmp/ccSNmVrS.s:1217   .text:0000000000000488 .L0 
     /tmp/ccSNmVrS.s:1223   .text:0000000000000494 .L0 
     /tmp/ccSNmVrS.s:1224   .text:0000000000000494 .L0 
GAS LISTING /tmp/ccSNmVrS.s 			page 47


     /tmp/ccSNmVrS.s:1232   .text:00000000000004a0 .L0 
     /tmp/ccSNmVrS.s:1233   .text:00000000000004a0 .L0 
     /tmp/ccSNmVrS.s:1240   .text:00000000000004a8 .L0 
     /tmp/ccSNmVrS.s:1245   .text:00000000000004ac .L0 
     /tmp/ccSNmVrS.s:1247   .text:00000000000004ac .L0 
     /tmp/ccSNmVrS.s:1248   .text:00000000000004ac .L0 
     /tmp/ccSNmVrS.s:1249   .text:00000000000004ac .L0 
src/handleSupervisorTrap.cpp:93     .text:00000000000004ac .L0 
     /tmp/ccSNmVrS.s:1256   .text:00000000000004b0 .L0 
     /tmp/ccSNmVrS.s:1258   .text:00000000000004b0 .L0 
     /tmp/ccSNmVrS.s:1261   .text:00000000000004b8 .L0 
src/handleSupervisorTrap.cpp:95     .text:00000000000004b8 .L0 
     /tmp/ccSNmVrS.s:1268   .text:00000000000004bc .L0 
     /tmp/ccSNmVrS.s:1273   .text:00000000000004c0 .L0 
     /tmp/ccSNmVrS.s:1275   .text:00000000000004c0 .L0 
     /tmp/ccSNmVrS.s:1276   .text:00000000000004c0 .L0 
     /tmp/ccSNmVrS.s:1277   .text:00000000000004c0 .L0 
src/handleSupervisorTrap.cpp:100    .text:00000000000004c0 .L0 
     /tmp/ccSNmVrS.s:1284   .text:00000000000004c4 .L0 
     /tmp/ccSNmVrS.s:1286   .text:00000000000004c4 .L0 
     /tmp/ccSNmVrS.s:1289   .text:00000000000004cc .L0 
src/handleSupervisorTrap.cpp:102    .text:00000000000004cc .L0 
     /tmp/ccSNmVrS.s:1296   .text:00000000000004d0 .L0 
     /tmp/ccSNmVrS.s:1301   .text:00000000000004d4 .L0 
     /tmp/ccSNmVrS.s:1303   .text:00000000000004d4 .L0 
     /tmp/ccSNmVrS.s:1304   .text:00000000000004d4 .L0 
     /tmp/ccSNmVrS.s:1305   .text:00000000000004d4 .L0 
     /tmp/ccSNmVrS.s:1309   .text:00000000000004e4 .L0 
     /tmp/ccSNmVrS.s:1310   .text:00000000000004e4 .L0 
     /tmp/ccSNmVrS.s:1313   .text:00000000000004ec .L0 
src/handleSupervisorTrap.cpp:108    .text:00000000000004ec .L0 
     /tmp/ccSNmVrS.s:1319   .text:00000000000004f0 .L0 
     /tmp/ccSNmVrS.s:1321   .text:00000000000004f0 .L0 
     /tmp/ccSNmVrS.s:1323   .text:00000000000004f4 .L0 
     /tmp/ccSNmVrS.s:1328   .text:00000000000004f8 .L0 
     /tmp/ccSNmVrS.s:1330   .text:00000000000004f8 .L0 
     /tmp/ccSNmVrS.s:1331   .text:00000000000004f8 .L0 
     /tmp/ccSNmVrS.s:1332   .text:00000000000004f8 .L0 
     /tmp/ccSNmVrS.s:1336   .text:0000000000000508 .L0 
     /tmp/ccSNmVrS.s:1337   .text:0000000000000508 .L0 
src/handleSupervisorTrap.cpp:115    .text:0000000000000508 .L0 
     /tmp/ccSNmVrS.s:1344   .text:000000000000050c .L0 
     /tmp/ccSNmVrS.s:1346   .text:000000000000050c .L0 
     /tmp/ccSNmVrS.s:1350   .text:0000000000000518 .L0 
     /tmp/ccSNmVrS.s:1351   .text:0000000000000518 .L0 
     /tmp/ccSNmVrS.s:1353   .text:000000000000051c .L0 
     /tmp/ccSNmVrS.s:1357   .text:0000000000000520 .L0 
     /tmp/ccSNmVrS.s:1358   .text:0000000000000520 .L0 
     /tmp/ccSNmVrS.s:1359   .text:0000000000000520 .L0 
     /tmp/ccSNmVrS.s:1360   .text:0000000000000520 .L0 
     /tmp/ccSNmVrS.s:1363   .text:000000000000052c .L0 
     /tmp/ccSNmVrS.s:1364   .text:000000000000052c .L0 
     /tmp/ccSNmVrS.s:1375   .text:0000000000000538 .L0 
     /tmp/ccSNmVrS.s:1376   .text:0000000000000538 .L0 
     /tmp/ccSNmVrS.s:1379   .text:0000000000000544 .L0 
     /tmp/ccSNmVrS.s:1382   .text:0000000000000548 .L0 
     /tmp/ccSNmVrS.s:1383   .text:0000000000000548 .L0 
GAS LISTING /tmp/ccSNmVrS.s 			page 48


     /tmp/ccSNmVrS.s:1389   .text:000000000000055c .L0 
     /tmp/ccSNmVrS.s:1396   .text:0000000000000564 .L0 
     /tmp/ccSNmVrS.s:1397   .text:0000000000000564 .L0 
     /tmp/ccSNmVrS.s:1409   .text:0000000000000574 .L0 
     /tmp/ccSNmVrS.s:1410   .text:0000000000000574 .L0 
     /tmp/ccSNmVrS.s:1415   .text:0000000000000580 .L0 
     /tmp/ccSNmVrS.s:1416   .text:0000000000000580 .L0 
     /tmp/ccSNmVrS.s:1421   .text:000000000000058c .L0 
     /tmp/ccSNmVrS.s:1422   .text:000000000000058c .L0 
     /tmp/ccSNmVrS.s:1425   .text:0000000000000598 .L0 
     /tmp/ccSNmVrS.s:1426   .text:0000000000000598 .L0 
     /tmp/ccSNmVrS.s:1429   .text:00000000000005a0 .L0 
src/handleSupervisorTrap.cpp:138    .text:00000000000005a0 .L0 
     /tmp/ccSNmVrS.s:1435   .text:00000000000005a4 .L0 
src/handleSupervisorTrap.cpp:139    .text:00000000000005a4 .L0 
     /tmp/ccSNmVrS.s:1451   .text:00000000000005ac .L0 
     /tmp/ccSNmVrS.s:1452   .text:00000000000005ac .L0 
     /tmp/ccSNmVrS.s:1457   .text:00000000000005b8 .L0 
     /tmp/ccSNmVrS.s:1458   .text:00000000000005b8 .L0 
     /tmp/ccSNmVrS.s:1463   .text:00000000000005c4 .L0 
     /tmp/ccSNmVrS.s:1464   .text:00000000000005c4 .L0 
     /tmp/ccSNmVrS.s:1468   .text:00000000000005cc .L0 
src/handleSupervisorTrap.cpp:149    .text:00000000000005cc .L0 
     /tmp/ccSNmVrS.s:1474   .text:00000000000005d0 .L0 
src/handleSupervisorTrap.cpp:150    .text:00000000000005d0 .L0 
     /tmp/ccSNmVrS.s:1494   .text:00000000000005dc .L0 
     /tmp/ccSNmVrS.s:1495   .text:00000000000005dc .L0 
     /tmp/ccSNmVrS.s:1513   .text:00000000000005f8 .L0 
     /tmp/ccSNmVrS.s:1514   .text:00000000000005f8 .L0 
     /tmp/ccSNmVrS.s:1529   .text:0000000000000610 .L0 
     /tmp/ccSNmVrS.s:1574   .text:0000000000000610 .L0 
     /tmp/ccSNmVrS.s:657    .rodata.str1.8:0000000000000000 .LC0
     /tmp/ccSNmVrS.s:736    .text:00000000000002d0 .L0 
     /tmp/ccSNmVrS.s:660    .rodata.str1.8:0000000000000028 .LC1
     /tmp/ccSNmVrS.s:750    .text:00000000000002f8 .L0 
     /tmp/ccSNmVrS.s:796    .rodata:0000000000000000 .L47
     /tmp/ccSNmVrS.s:788    .text:0000000000000344 .L0 
     /tmp/ccSNmVrS.s:1305   .text:00000000000004d4 .L0 
     /tmp/ccSNmVrS.s:1332   .text:00000000000004f8 .L0 
     /tmp/ccSNmVrS.s:1360   .text:0000000000000520 .L0 
     /tmp/ccSNmVrS.s:1376   .text:0000000000000538 .L0 
     /tmp/ccSNmVrS.s:1383   .text:0000000000000548 .L0 
     /tmp/ccSNmVrS.s:1422   .text:000000000000058c .L0 
     /tmp/ccSNmVrS.s:758    .text:000000000000030c .L42
     /tmp/ccSNmVrS.s:1367   .text:0000000000000538 .L74
     /tmp/ccSNmVrS.s:1443   .text:00000000000005ac .L75
     /tmp/ccSNmVrS.s:916    .text:000000000000037c .L41
     /tmp/ccSNmVrS.s:1354   .text:0000000000000520 .L45
     /tmp/ccSNmVrS.s:893    .text:000000000000036c .L61
     /tmp/ccSNmVrS.s:1194   .text:0000000000000478 .L69
     /tmp/ccSNmVrS.s:1182   .text:0000000000000470 .L62
     /tmp/ccSNmVrS.s:1228   .text:00000000000004a0 .L63
     /tmp/ccSNmVrS.s:1391   .text:0000000000000564 .L65
     /tmp/ccSNmVrS.s:1402   .text:0000000000000574 .L76
     /tmp/ccSNmVrS.s:865    .text:000000000000035c .L60
     /tmp/ccSNmVrS.s:937    .text:000000000000039c .L59
     /tmp/ccSNmVrS.s:969    .text:00000000000003b0 .L58
GAS LISTING /tmp/ccSNmVrS.s 			page 49


     /tmp/ccSNmVrS.s:988    .text:00000000000003c0 .L57
     /tmp/ccSNmVrS.s:1007   .text:00000000000003d0 .L56
     /tmp/ccSNmVrS.s:1068   .text:0000000000000408 .L55
     /tmp/ccSNmVrS.s:1090   .text:000000000000041c .L54
     /tmp/ccSNmVrS.s:1111   .text:0000000000000430 .L53
     /tmp/ccSNmVrS.s:1131   .text:0000000000000440 .L52
     /tmp/ccSNmVrS.s:1199   .text:0000000000000480 .L51
     /tmp/ccSNmVrS.s:1242   .text:00000000000004ac .L50
     /tmp/ccSNmVrS.s:1270   .text:00000000000004c0 .L49
     /tmp/ccSNmVrS.s:1298   .text:00000000000004d4 .L48
     /tmp/ccSNmVrS.s:1325   .text:00000000000004f8 .L46
     /tmp/ccSNmVrS.s:737    .text:00000000000002d8 .LEHB0
     /tmp/ccSNmVrS.s:667    .text:0000000000000268 .LFB25
     /tmp/ccSNmVrS.s:1044   .text:00000000000003e8 .LEHE0
     /tmp/ccSNmVrS.s:1054   .text:00000000000003f8 .LEHB1
     /tmp/ccSNmVrS.s:1057   .text:0000000000000400 .LEHE1
     /tmp/ccSNmVrS.s:1482   .text:00000000000005d8 .L70
     /tmp/ccSNmVrS.s:1074   .text:0000000000000408 .LEHB2
     /tmp/ccSNmVrS.s:1163   .text:0000000000000454 .LEHE2
     /tmp/ccSNmVrS.s:1171   .text:000000000000045c .LEHB3
     /tmp/ccSNmVrS.s:1174   .text:0000000000000464 .LEHE3
     /tmp/ccSNmVrS.s:1503   .text:00000000000005f4 .L71
     /tmp/ccSNmVrS.s:1225   .text:0000000000000498 .LEHB4
     /tmp/ccSNmVrS.s:1466   .text:00000000000005cc .LEHE4
     /tmp/ccSNmVrS.s:1499   .text:00000000000005ec .LEHB5
     /tmp/ccSNmVrS.s:1502   .text:00000000000005f4 .LEHE5
     /tmp/ccSNmVrS.s:1518   .text:0000000000000608 .LEHB6
     /tmp/ccSNmVrS.s:1521   .text:0000000000000610 .LEHE6
     /tmp/ccSNmVrS.s:3385   .debug_abbrev:0000000000000000 .Ldebug_abbrev0
     /tmp/ccSNmVrS.s:4935   .debug_str:0000000000000614 .LASF146
     /tmp/ccSNmVrS.s:4843   .debug_str:000000000000040a .LASF147
     /tmp/ccSNmVrS.s:4761   .debug_str:00000000000001e5 .LASF148
     /tmp/ccSNmVrS.s:5      .text:0000000000000000 .Ltext0
     /tmp/ccSNmVrS.s:1568   .text:0000000000000610 .Letext0
     /tmp/ccSNmVrS.s:4679   .debug_line:0000000000000000 .Ldebug_line0
     /tmp/ccSNmVrS.s:4727   .debug_str:000000000000010b .LASF149
     /tmp/ccSNmVrS.s:4895   .debug_str:000000000000053b .LASF0
     /tmp/ccSNmVrS.s:4831   .debug_str:00000000000003b0 .LASF2
     /tmp/ccSNmVrS.s:4871   .debug_str:00000000000004cb .LASF1
     /tmp/ccSNmVrS.s:4891   .debug_str:000000000000051b .LASF3
     /tmp/ccSNmVrS.s:4759   .debug_str:00000000000001d5 .LASF6
     /tmp/ccSNmVrS.s:4865   .debug_str:000000000000049f .LASF8
     /tmp/ccSNmVrS.s:4857   .debug_str:0000000000000472 .LASF4
     /tmp/ccSNmVrS.s:4785   .debug_str:000000000000027a .LASF5
     /tmp/ccSNmVrS.s:4839   .debug_str:00000000000003f3 .LASF7
     /tmp/ccSNmVrS.s:4781   .debug_str:0000000000000261 .LASF9
     /tmp/ccSNmVrS.s:4807   .debug_str:0000000000000323 .LASF10
     /tmp/ccSNmVrS.s:4689   .debug_str:000000000000002e .LASF11
     /tmp/ccSNmVrS.s:4699   .debug_str:000000000000007b .LASF12
     /tmp/ccSNmVrS.s:4963   .debug_str:00000000000007e6 .LASF18
     /tmp/ccSNmVrS.s:4791   .debug_str:00000000000002a0 .LASF13
     /tmp/ccSNmVrS.s:4845   .debug_str:0000000000000427 .LASF14
     /tmp/ccSNmVrS.s:4917   .debug_str:00000000000005b7 .LASF15
     /tmp/ccSNmVrS.s:4943   .debug_str:0000000000000725 .LASF16
     /tmp/ccSNmVrS.s:4985   .debug_str:000000000000086a .LASF17
     /tmp/ccSNmVrS.s:4755   .debug_str:00000000000001c5 .LASF19
     /tmp/ccSNmVrS.s:4685   .debug_str:0000000000000012 .LASF20
GAS LISTING /tmp/ccSNmVrS.s 			page 50


     /tmp/ccSNmVrS.s:4965   .debug_str:00000000000007ec .LASF21
     /tmp/ccSNmVrS.s:4867   .debug_str:00000000000004ba .LASF22
     /tmp/ccSNmVrS.s:4919   .debug_str:00000000000005c4 .LASF36
     /tmp/ccSNmVrS.s:4927   .debug_str:00000000000005ee .LASF37
     /tmp/ccSNmVrS.s:4911   .debug_str:0000000000000593 .LASF39
     /tmp/ccSNmVrS.s:4753   .debug_str:00000000000001bf .LASF46
     /tmp/ccSNmVrS.s:4787   .debug_str:000000000000028a .LASF23
     /tmp/ccSNmVrS.s:4833   .debug_str:00000000000003bc .LASF24
     /tmp/ccSNmVrS.s:4987   .debug_str:000000000000086f .LASF25
     /tmp/ccSNmVrS.s:4941   .debug_str:000000000000070e .LASF26
     /tmp/ccSNmVrS.s:4889   .debug_str:0000000000000516 .LASF27
     /tmp/ccSNmVrS.s:4695   .debug_str:0000000000000057 .LASF29
     /tmp/ccSNmVrS.s:4731   .debug_str:000000000000012e .LASF28
     /tmp/ccSNmVrS.s:4817   .debug_str:000000000000034f .LASF30
     /tmp/ccSNmVrS.s:4961   .debug_str:00000000000007de .LASF31
     /tmp/ccSNmVrS.s:4957   .debug_str:00000000000007b8 .LASF32
     /tmp/ccSNmVrS.s:4883   .debug_str:00000000000004fe .LASF33
     /tmp/ccSNmVrS.s:4739   .debug_str:0000000000000167 .LASF34
     /tmp/ccSNmVrS.s:4973   .debug_str:0000000000000815 .LASF35
     /tmp/ccSNmVrS.s:4733   .debug_str:0000000000000135 .LASF38
     /tmp/ccSNmVrS.s:4773   .debug_str:000000000000023b .LASF40
     /tmp/ccSNmVrS.s:4691   .debug_str:000000000000003d .LASF41
     /tmp/ccSNmVrS.s:4913   .debug_str:000000000000059e .LASF42
     /tmp/ccSNmVrS.s:4837   .debug_str:00000000000003e6 .LASF43
     /tmp/ccSNmVrS.s:4859   .debug_str:0000000000000478 .LASF44
     /tmp/ccSNmVrS.s:4819   .debug_str:000000000000036b .LASF45
     /tmp/ccSNmVrS.s:4737   .debug_str:0000000000000160 .LASF47
     /tmp/ccSNmVrS.s:4705   .debug_str:000000000000009f .LASF48
     /tmp/ccSNmVrS.s:4735   .debug_str:000000000000014d .LASF49
     /tmp/ccSNmVrS.s:4835   .debug_str:00000000000003d3 .LASF50
     /tmp/ccSNmVrS.s:4949   .debug_str:000000000000076e .LASF51
     /tmp/ccSNmVrS.s:4771   .debug_str:000000000000022d .LASF52
     /tmp/ccSNmVrS.s:4881   .debug_str:00000000000004ef .LASF53
     /tmp/ccSNmVrS.s:4939   .debug_str:00000000000006ff .LASF54
     /tmp/ccSNmVrS.s:4709   .debug_str:00000000000000ab .LASF55
     /tmp/ccSNmVrS.s:4687   .debug_str:000000000000001e .LASF56
     /tmp/ccSNmVrS.s:4725   .debug_str:00000000000000ff .LASF57
     /tmp/ccSNmVrS.s:4903   .debug_str:000000000000055b .LASF58
     /tmp/ccSNmVrS.s:4767   .debug_str:0000000000000212 .LASF59
     /tmp/ccSNmVrS.s:4801   .debug_str:00000000000002fe .LASF150
     /tmp/ccSNmVrS.s:4925   .debug_str:00000000000005e5 .LASF60
     /tmp/ccSNmVrS.s:4853   .debug_str:000000000000045e .LASF61
     /tmp/ccSNmVrS.s:4793   .debug_str:00000000000002a5 .LASF62
     /tmp/ccSNmVrS.s:4697   .debug_str:0000000000000071 .LASF151
     /tmp/ccSNmVrS.s:4693   .debug_str:000000000000004c .LASF63
     /tmp/ccSNmVrS.s:4713   .debug_str:00000000000000c3 .LASF64
     /tmp/ccSNmVrS.s:4813   .debug_str:0000000000000336 .LASF65
     /tmp/ccSNmVrS.s:4719   .debug_str:00000000000000e2 .LASF66
     /tmp/ccSNmVrS.s:4829   .debug_str:00000000000003a7 .LASF67
     /tmp/ccSNmVrS.s:4741   .debug_str:0000000000000184 .LASF68
     /tmp/ccSNmVrS.s:4815   .debug_str:0000000000000346 .LASF69
     /tmp/ccSNmVrS.s:4799   .debug_str:00000000000002de .LASF70
     /tmp/ccSNmVrS.s:4851   .debug_str:0000000000000455 .LASF71
     /tmp/ccSNmVrS.s:4849   .debug_str:0000000000000435 .LASF72
     /tmp/ccSNmVrS.s:4805   .debug_str:0000000000000318 .LASF73
     /tmp/ccSNmVrS.s:4797   .debug_str:00000000000002ba .LASF74
     /tmp/ccSNmVrS.s:4803   .debug_str:0000000000000309 .LASF75
GAS LISTING /tmp/ccSNmVrS.s 			page 51


     /tmp/ccSNmVrS.s:4937   .debug_str:00000000000006d8 .LASF77
     /tmp/ccSNmVrS.s:4979   .debug_str:000000000000083c .LASF76
     /tmp/ccSNmVrS.s:4945   .debug_str:0000000000000733 .LASF78
     /tmp/ccSNmVrS.s:4717   .debug_str:00000000000000d6 .LASF152
     /tmp/ccSNmVrS.s:4879   .debug_str:00000000000004e9 .LASF79
     /tmp/ccSNmVrS.s:4875   .debug_str:00000000000004d7 .LASF80
     /tmp/ccSNmVrS.s:4789   .debug_str:0000000000000298 .LASF81
     /tmp/ccSNmVrS.s:4885   .debug_str:0000000000000506 .LASF82
     /tmp/ccSNmVrS.s:4933   .debug_str:0000000000000607 .LASF83
     /tmp/ccSNmVrS.s:4855   .debug_str:0000000000000467 .LASF84
     /tmp/ccSNmVrS.s:4955   .debug_str:00000000000007a3 .LASF85
     /tmp/ccSNmVrS.s:1530   .text:0000000000000610 .LFE25
     /tmp/ccSNmVrS.s:4975   .debug_str:000000000000082c .LASF86
     /tmp/ccSNmVrS.s:4657   .debug_ranges:0000000000000000 .Ldebug_ranges0
     /tmp/ccSNmVrS.s:4847   .debug_str:0000000000000430 .LASF87
     /tmp/ccSNmVrS.s:4809   .debug_str:0000000000000328 .LASF88
     /tmp/ccSNmVrS.s:869    .text:000000000000035c .LBB56
     /tmp/ccSNmVrS.s:894    .text:000000000000036c .LBE56
     /tmp/ccSNmVrS.s:4362   .debug_loc:0000000000000000 .LLST4
     /tmp/ccSNmVrS.s:4769   .debug_str:0000000000000228 .LASF89
     /tmp/ccSNmVrS.s:4374   .debug_loc:0000000000000037 .LLST5
     /tmp/ccSNmVrS.s:883    .text:0000000000000368 .LVL21
     /tmp/ccSNmVrS.s:945    .text:000000000000039c .LBB57
     /tmp/ccSNmVrS.s:970    .text:00000000000003b0 .LBE57
     /tmp/ccSNmVrS.s:4381   .debug_loc:000000000000005a .LLST6
     /tmp/ccSNmVrS.s:4388   .debug_loc:000000000000007d .LLST7
     /tmp/ccSNmVrS.s:958    .text:00000000000003a8 .LVL24
     /tmp/ccSNmVrS.s:973    .text:00000000000003b0 .LBB58
     /tmp/ccSNmVrS.s:989    .text:00000000000003c0 .LBE58
     /tmp/ccSNmVrS.s:4395   .debug_loc:00000000000000a0 .LLST8
     /tmp/ccSNmVrS.s:977    .text:00000000000003b8 .LVL26
     /tmp/ccSNmVrS.s:992    .text:00000000000003c0 .LBB59
     /tmp/ccSNmVrS.s:1008   .text:00000000000003d0 .LBE59
     /tmp/ccSNmVrS.s:4402   .debug_loc:00000000000000c3 .LLST9
     /tmp/ccSNmVrS.s:996    .text:00000000000003c8 .LVL28
     /tmp/ccSNmVrS.s:4409   .debug_loc:00000000000000e6 .LLST10
     /tmp/ccSNmVrS.s:4783   .debug_str:0000000000000274 .LASF90
     /tmp/ccSNmVrS.s:4417   .debug_loc:000000000000010a .LLST11
     /tmp/ccSNmVrS.s:1035   .text:00000000000003dc .LBB61
     /tmp/ccSNmVrS.s:1049   .text:00000000000003ec .LBE61
     /tmp/ccSNmVrS.s:4424   .debug_loc:000000000000012d .LLST12
     /tmp/ccSNmVrS.s:4433   .debug_loc:0000000000000152 .LLST13
     /tmp/ccSNmVrS.s:4446   .debug_loc:000000000000018a .LLST14
     /tmp/ccSNmVrS.s:1043   .text:00000000000003e8 .LVL32
     /tmp/ccSNmVrS.s:1491   .text:00000000000005dc .LBB63
     /tmp/ccSNmVrS.s:1507   .text:00000000000005f8 .LBE63
     /tmp/ccSNmVrS.s:4457   .debug_loc:00000000000001c0 .LLST15
     /tmp/ccSNmVrS.s:1497   .text:00000000000005e8 .LVL80
     /tmp/ccSNmVrS.s:1056   .text:0000000000000400 .LVL34
     /tmp/ccSNmVrS.s:1072   .text:0000000000000408 .LBB65
     /tmp/ccSNmVrS.s:1091   .text:000000000000041c .LBE65
     /tmp/ccSNmVrS.s:4464   .debug_loc:00000000000001e3 .LLST16
     /tmp/ccSNmVrS.s:1077   .text:0000000000000410 .LVL36
     /tmp/ccSNmVrS.s:1094   .text:000000000000041c .LBB66
     /tmp/ccSNmVrS.s:1112   .text:0000000000000430 .LBE66
     /tmp/ccSNmVrS.s:4472   .debug_loc:0000000000000207 .LLST17
     /tmp/ccSNmVrS.s:1098   .text:0000000000000424 .LVL38
GAS LISTING /tmp/ccSNmVrS.s 			page 52


     /tmp/ccSNmVrS.s:1115   .text:0000000000000430 .LBB67
     /tmp/ccSNmVrS.s:1132   .text:0000000000000440 .LBE67
     /tmp/ccSNmVrS.s:4929   .debug_str:00000000000005fb .LASF91
     /tmp/ccSNmVrS.s:4480   .debug_loc:000000000000022b .LLST18
     /tmp/ccSNmVrS.s:1128   .text:000000000000043c .LVL41
     /tmp/ccSNmVrS.s:4487   .debug_loc:000000000000024e .LLST19
     /tmp/ccSNmVrS.s:4495   .debug_loc:0000000000000272 .LLST20
     /tmp/ccSNmVrS.s:4506   .debug_loc:00000000000002a8 .LLST21
     /tmp/ccSNmVrS.s:1154   .text:0000000000000448 .LBB69
     /tmp/ccSNmVrS.s:1168   .text:0000000000000458 .LBE69
     /tmp/ccSNmVrS.s:4513   .debug_loc:00000000000002cb .LLST22
     /tmp/ccSNmVrS.s:4521   .debug_loc:00000000000002ef .LLST23
     /tmp/ccSNmVrS.s:4534   .debug_loc:0000000000000327 .LLST24
     /tmp/ccSNmVrS.s:1162   .text:0000000000000454 .LVL45
     /tmp/ccSNmVrS.s:1510   .text:00000000000005f8 .LBB71
     /tmp/ccSNmVrS.s:1523   .text:0000000000000610 .LBE71
     /tmp/ccSNmVrS.s:4545   .debug_loc:000000000000035d .LLST25
     /tmp/ccSNmVrS.s:1516   .text:0000000000000604 .LVL83
     /tmp/ccSNmVrS.s:1173   .text:0000000000000464 .LVL47
     /tmp/ccSNmVrS.s:1203   .text:0000000000000480 .LBB73
     /tmp/ccSNmVrS.s:1243   .text:00000000000004ac .LBE73
     /tmp/ccSNmVrS.s:4552   .debug_loc:0000000000000380 .LLST26
     /tmp/ccSNmVrS.s:1220   .text:0000000000000494 .LBB74
     /tmp/ccSNmVrS.s:1230   .text:00000000000004a0 .LBE74
     /tmp/ccSNmVrS.s:4559   .debug_loc:00000000000003a3 .LLST27
     /tmp/ccSNmVrS.s:1227   .text:00000000000004a0 .LVL53
     /tmp/ccSNmVrS.s:1219   .text:0000000000000494 .LVL52
     /tmp/ccSNmVrS.s:1246   .text:00000000000004ac .LBB76
     /tmp/ccSNmVrS.s:1271   .text:00000000000004c0 .LBE76
     /tmp/ccSNmVrS.s:4566   .debug_loc:00000000000003c6 .LLST28
     /tmp/ccSNmVrS.s:4573   .debug_loc:00000000000003e9 .LLST29
     /tmp/ccSNmVrS.s:1259   .text:00000000000004b8 .LVL56
     /tmp/ccSNmVrS.s:1274   .text:00000000000004c0 .LBB77
     /tmp/ccSNmVrS.s:1299   .text:00000000000004d4 .LBE77
     /tmp/ccSNmVrS.s:4580   .debug_loc:000000000000040c .LLST30
     /tmp/ccSNmVrS.s:4587   .debug_loc:000000000000042f .LLST31
     /tmp/ccSNmVrS.s:1287   .text:00000000000004cc .LVL59
     /tmp/ccSNmVrS.s:1302   .text:00000000000004d4 .LBB78
     /tmp/ccSNmVrS.s:1326   .text:00000000000004f8 .LBE78
     /tmp/ccSNmVrS.s:4594   .debug_loc:0000000000000452 .LLST32
     /tmp/ccSNmVrS.s:1311   .text:00000000000004ec .LVL61
     /tmp/ccSNmVrS.s:1329   .text:00000000000004f8 .LBB79
     /tmp/ccSNmVrS.s:1355   .text:0000000000000520 .LBE79
     /tmp/ccSNmVrS.s:4601   .debug_loc:0000000000000475 .LLST33
     /tmp/ccSNmVrS.s:1348   .text:0000000000000518 .LVL64
     /tmp/ccSNmVrS.s:764    .text:0000000000000314 .LVL16
     /tmp/ccSNmVrS.s:770    .text:0000000000000320 .LVL17
     /tmp/ccSNmVrS.s:778    .text:0000000000000330 .LVL18
     /tmp/ccSNmVrS.s:1365   .text:0000000000000534 .LVL65
     /tmp/ccSNmVrS.s:1407   .text:0000000000000574 .LBB46
     /tmp/ccSNmVrS.s:1440   .text:00000000000005a8 .LBE46
     /tmp/ccSNmVrS.s:4608   .debug_loc:0000000000000498 .LLST2
     /tmp/ccSNmVrS.s:4615   .debug_loc:00000000000004bb .LLST3
     /tmp/ccSNmVrS.s:1411   .text:000000000000057c .LVL67
     /tmp/ccSNmVrS.s:1417   .text:0000000000000588 .LVL69
     /tmp/ccSNmVrS.s:1427   .text:00000000000005a0 .LVL71
     /tmp/ccSNmVrS.s:1449   .text:00000000000005ac .LBB41
GAS LISTING /tmp/ccSNmVrS.s 			page 53


     /tmp/ccSNmVrS.s:1479   .text:00000000000005d4 .LBE41
     /tmp/ccSNmVrS.s:4626   .debug_loc:00000000000004f1 .LLST0
     /tmp/ccSNmVrS.s:4633   .debug_loc:0000000000000514 .LLST1
     /tmp/ccSNmVrS.s:1453   .text:00000000000005b4 .LVL73
     /tmp/ccSNmVrS.s:1459   .text:00000000000005c0 .LVL75
     /tmp/ccSNmVrS.s:1465   .text:00000000000005cc .LVL77
     /tmp/ccSNmVrS.s:739    .text:00000000000002e0 .LVL13
     /tmp/ccSNmVrS.s:747    .text:00000000000002f8 .LVL14
     /tmp/ccSNmVrS.s:752    .text:0000000000000308 .LVL15
     /tmp/ccSNmVrS.s:1399   .text:0000000000000570 .LVL66
     /tmp/ccSNmVrS.s:1501   .text:00000000000005f4 .LVL81
     /tmp/ccSNmVrS.s:1520   .text:0000000000000610 .LVL84
     /tmp/ccSNmVrS.s:4869   .debug_str:00000000000004c6 .LASF92
     /tmp/ccSNmVrS.s:4931   .debug_str:0000000000000602 .LASF93
     /tmp/ccSNmVrS.s:4721   .debug_str:00000000000000ed .LASF94
     /tmp/ccSNmVrS.s:4707   .debug_str:00000000000000a6 .LASF95
     /tmp/ccSNmVrS.s:4959   .debug_str:00000000000007d5 .LASF96
     /tmp/ccSNmVrS.s:628    .text:000000000000024c .LFB19
     /tmp/ccSNmVrS.s:653    .text:0000000000000268 .LFE19
     /tmp/ccSNmVrS.s:4909   .debug_str:0000000000000588 .LASF99
     /tmp/ccSNmVrS.s:4863   .debug_str:000000000000049a .LASF105
     /tmp/ccSNmVrS.s:4977   .debug_str:0000000000000833 .LASF107
     /tmp/ccSNmVrS.s:593    .text:0000000000000228 .LFB18
     /tmp/ccSNmVrS.s:622    .text:000000000000024c .LFE18
     /tmp/ccSNmVrS.s:4921   .debug_str:00000000000005d4 .LASF97
     /tmp/ccSNmVrS.s:4989   .debug_str:000000000000087e .LASF98
     /tmp/ccSNmVrS.s:562    .text:000000000000020c .LFB17
     /tmp/ccSNmVrS.s:587    .text:0000000000000228 .LFE17
     /tmp/ccSNmVrS.s:4775   .debug_str:0000000000000245 .LASF100
     /tmp/ccSNmVrS.s:4873   .debug_str:00000000000004d0 .LASF101
     /tmp/ccSNmVrS.s:4743   .debug_str:0000000000000189 .LASF102
     /tmp/ccSNmVrS.s:531    .text:00000000000001f0 .LFB16
     /tmp/ccSNmVrS.s:556    .text:000000000000020c .LFE16
     /tmp/ccSNmVrS.s:4825   .debug_str:0000000000000397 .LASF103
     /tmp/ccSNmVrS.s:4841   .debug_str:00000000000003fc .LASF104
     /tmp/ccSNmVrS.s:500    .text:00000000000001d4 .LFB15
     /tmp/ccSNmVrS.s:525    .text:00000000000001f0 .LFE15
     /tmp/ccSNmVrS.s:4723   .debug_str:00000000000000f5 .LASF106
     /tmp/ccSNmVrS.s:4703   .debug_str:0000000000000091 .LASF108
     /tmp/ccSNmVrS.s:465    .text:00000000000001b0 .LFB14
     /tmp/ccSNmVrS.s:494    .text:00000000000001d4 .LFE14
     /tmp/ccSNmVrS.s:4683   .debug_str:0000000000000007 .LASF109
     /tmp/ccSNmVrS.s:4701   .debug_str:0000000000000081 .LASF110
     /tmp/ccSNmVrS.s:434    .text:0000000000000194 .LFB13
     /tmp/ccSNmVrS.s:459    .text:00000000000001b0 .LFE13
     /tmp/ccSNmVrS.s:4983   .debug_str:000000000000085f .LASF111
     /tmp/ccSNmVrS.s:4779   .debug_str:0000000000000251 .LASF112
     /tmp/ccSNmVrS.s:403    .text:0000000000000178 .LFB12
     /tmp/ccSNmVrS.s:428    .text:0000000000000194 .LFE12
     /tmp/ccSNmVrS.s:4749   .debug_str:00000000000001b0 .LASF113
     /tmp/ccSNmVrS.s:4923   .debug_str:00000000000005db .LASF114
     /tmp/ccSNmVrS.s:372    .text:000000000000015c .LFB11
     /tmp/ccSNmVrS.s:397    .text:0000000000000178 .LFE11
     /tmp/ccSNmVrS.s:4827   .debug_str:00000000000003a1 .LASF115
     /tmp/ccSNmVrS.s:4877   .debug_str:00000000000004df .LASF116
     /tmp/ccSNmVrS.s:337    .text:0000000000000138 .LFB10
     /tmp/ccSNmVrS.s:366    .text:000000000000015c .LFE10
GAS LISTING /tmp/ccSNmVrS.s 			page 54


     /tmp/ccSNmVrS.s:4681   .debug_str:0000000000000000 .LASF117
     /tmp/ccSNmVrS.s:4969   .debug_str:0000000000000802 .LASF118
     /tmp/ccSNmVrS.s:306    .text:000000000000011c .LFB9
     /tmp/ccSNmVrS.s:331    .text:0000000000000138 .LFE9
     /tmp/ccSNmVrS.s:4887   .debug_str:000000000000050f .LASF119
     /tmp/ccSNmVrS.s:4715   .debug_str:00000000000000cb .LASF120
     /tmp/ccSNmVrS.s:275    .text:0000000000000100 .LFB8
     /tmp/ccSNmVrS.s:300    .text:000000000000011c .LFE8
     /tmp/ccSNmVrS.s:4907   .debug_str:0000000000000580 .LASF121
     /tmp/ccSNmVrS.s:4729   .debug_str:0000000000000122 .LASF122
     /tmp/ccSNmVrS.s:244    .text:00000000000000e4 .LFB7
     /tmp/ccSNmVrS.s:269    .text:0000000000000100 .LFE7
     /tmp/ccSNmVrS.s:4811   .debug_str:0000000000000330 .LASF123
     /tmp/ccSNmVrS.s:4757   .debug_str:00000000000001cd .LASF124
     /tmp/ccSNmVrS.s:4947   .debug_str:0000000000000762 .LASF125
     /tmp/ccSNmVrS.s:209    .text:00000000000000c0 .LFB6
     /tmp/ccSNmVrS.s:238    .text:00000000000000e4 .LFE6
     /tmp/ccSNmVrS.s:4711   .debug_str:00000000000000bb .LASF126
     /tmp/ccSNmVrS.s:4981   .debug_str:0000000000000853 .LASF127
     /tmp/ccSNmVrS.s:178    .text:00000000000000a4 .LFB5
     /tmp/ccSNmVrS.s:203    .text:00000000000000c0 .LFE5
     /tmp/ccSNmVrS.s:4893   .debug_str:0000000000000535 .LASF128
     /tmp/ccSNmVrS.s:4971   .debug_str:000000000000080d .LASF129
     /tmp/ccSNmVrS.s:4745   .debug_str:0000000000000194 .LASF130
     /tmp/ccSNmVrS.s:143    .text:0000000000000080 .LFB4
     /tmp/ccSNmVrS.s:172    .text:00000000000000a4 .LFE4
     /tmp/ccSNmVrS.s:4899   .debug_str:000000000000054d .LASF131
     /tmp/ccSNmVrS.s:4821   .debug_str:0000000000000379 .LASF132
     /tmp/ccSNmVrS.s:112    .text:0000000000000064 .LFB3
     /tmp/ccSNmVrS.s:137    .text:0000000000000080 .LFE3
     /tmp/ccSNmVrS.s:4915   .debug_str:00000000000005b0 .LASF133
     /tmp/ccSNmVrS.s:4765   .debug_str:0000000000000207 .LASF134
     /tmp/ccSNmVrS.s:77     .text:0000000000000040 .LFB2
     /tmp/ccSNmVrS.s:106    .text:0000000000000064 .LFE2
     /tmp/ccSNmVrS.s:4751   .debug_str:00000000000001b6 .LASF135
     /tmp/ccSNmVrS.s:4953   .debug_str:0000000000000796 .LASF136
     /tmp/ccSNmVrS.s:46     .text:0000000000000024 .LFB1
     /tmp/ccSNmVrS.s:71     .text:0000000000000040 .LFE1
     /tmp/ccSNmVrS.s:4967   .debug_str:00000000000007f9 .LASF137
     /tmp/ccSNmVrS.s:4897   .debug_str:0000000000000540 .LASF138
     /tmp/ccSNmVrS.s:10     .text:0000000000000000 .LFB0
     /tmp/ccSNmVrS.s:40     .text:0000000000000024 .LFE0
     /tmp/ccSNmVrS.s:4777   .debug_str:000000000000024a .LASF139
     /tmp/ccSNmVrS.s:4901   .debug_str:0000000000000554 .LASF140
     /tmp/ccSNmVrS.s:4747   .debug_str:00000000000001a0 .LASF141
     /tmp/ccSNmVrS.s:4823   .debug_str:0000000000000384 .LASF142
     /tmp/ccSNmVrS.s:4795   .debug_str:00000000000002ae .LASF143
     /tmp/ccSNmVrS.s:4861   .debug_str:000000000000048b .LASF144
     /tmp/ccSNmVrS.s:4763   .debug_str:00000000000001fe .LASF145
     /tmp/ccSNmVrS.s:4905   .debug_str:0000000000000571 .LASF153
     /tmp/ccSNmVrS.s:4951   .debug_str:000000000000077e .LASF154
     /tmp/ccSNmVrS.s:871    .text:000000000000035c .LVL19
     /tmp/ccSNmVrS.s:878    .text:0000000000000360 .LVL20
     /tmp/ccSNmVrS.s:891    .text:000000000000036c .LVL22
     /tmp/ccSNmVrS.s:953    .text:00000000000003a0 .LVL23
     /tmp/ccSNmVrS.s:968    .text:00000000000003b0 .LVL25
     /tmp/ccSNmVrS.s:987    .text:00000000000003c0 .LVL27
GAS LISTING /tmp/ccSNmVrS.s 			page 55


     /tmp/ccSNmVrS.s:1006   .text:00000000000003d0 .LVL29
     /tmp/ccSNmVrS.s:1021   .text:00000000000003d4 .LVL30
     /tmp/ccSNmVrS.s:1067   .text:0000000000000408 .LVL35
     /tmp/ccSNmVrS.s:1033   .text:00000000000003dc .LVL31
     /tmp/ccSNmVrS.s:1046   .text:00000000000003ec .LVL33
     /tmp/ccSNmVrS.s:1481   .text:00000000000005d8 .LVL78
     /tmp/ccSNmVrS.s:1484   .text:00000000000005dc .LVL79
     /tmp/ccSNmVrS.s:1089   .text:000000000000041c .LVL37
     /tmp/ccSNmVrS.s:1110   .text:0000000000000430 .LVL39
     /tmp/ccSNmVrS.s:1123   .text:0000000000000434 .LVL40
     /tmp/ccSNmVrS.s:1137   .text:0000000000000440 .LVL42
     /tmp/ccSNmVrS.s:1151   .text:0000000000000448 .LVL44
     /tmp/ccSNmVrS.s:1145   .text:0000000000000444 .LVL43
     /tmp/ccSNmVrS.s:1198   .text:0000000000000480 .LVL50
     /tmp/ccSNmVrS.s:1183   .text:0000000000000470 .LVL48
     /tmp/ccSNmVrS.s:1193   .text:0000000000000478 .LVL49
     /tmp/ccSNmVrS.s:1165   .text:0000000000000458 .LVL46
     /tmp/ccSNmVrS.s:1505   .text:00000000000005f8 .LVL82
     /tmp/ccSNmVrS.s:1211   .text:0000000000000484 .LVL51
     /tmp/ccSNmVrS.s:1241   .text:00000000000004ac .LVL54
     /tmp/ccSNmVrS.s:1254   .text:00000000000004b0 .LVL55
     /tmp/ccSNmVrS.s:1269   .text:00000000000004c0 .LVL57
     /tmp/ccSNmVrS.s:1282   .text:00000000000004c4 .LVL58
     /tmp/ccSNmVrS.s:1297   .text:00000000000004d4 .LVL60
     /tmp/ccSNmVrS.s:1324   .text:00000000000004f8 .LVL62
     /tmp/ccSNmVrS.s:1342   .text:000000000000050c .LVL63
     /tmp/ccSNmVrS.s:1413   .text:0000000000000580 .LVL68
     /tmp/ccSNmVrS.s:1442   .text:00000000000005ac .LVL72
     /tmp/ccSNmVrS.s:1419   .text:000000000000058c .LVL70
     /tmp/ccSNmVrS.s:1455   .text:00000000000005b8 .LVL74
     /tmp/ccSNmVrS.s:1461   .text:00000000000005c4 .LVL76
     /tmp/ccSNmVrS.s:1575   .debug_info:0000000000000000 .Ldebug_info0
     /tmp/ccSNmVrS.s:760    .text:000000000000030c .LBB53
     /tmp/ccSNmVrS.s:917    .text:000000000000037c .LBE53
     /tmp/ccSNmVrS.s:940    .text:000000000000039c .LBB86
     /tmp/ccSNmVrS.s:1370   .text:0000000000000538 .LBE86
     /tmp/ccSNmVrS.s:1487   .text:00000000000005dc .LBB88
     /tmp/ccSNmVrS.s:1527   .text:0000000000000610 .LBE88
     /tmp/ccSNmVrS.s:1011   .text:00000000000003d0 .LBB60
     /tmp/ccSNmVrS.s:1069   .text:0000000000000408 .LBE60
     /tmp/ccSNmVrS.s:1490   .text:00000000000005dc .LBB80
     /tmp/ccSNmVrS.s:1508   .text:00000000000005f8 .LBE80
     /tmp/ccSNmVrS.s:1135   .text:0000000000000440 .LBB68
     /tmp/ccSNmVrS.s:1200   .text:0000000000000480 .LBE68
     /tmp/ccSNmVrS.s:1509   .text:00000000000005f8 .LBB81
     /tmp/ccSNmVrS.s:1524   .text:0000000000000610 .LBE81
     /tmp/ccSNmVrS.s:1533   .gcc_except_table:0000000000000000 .LLSDA25

UNDEFINED SYMBOLS
_Z11printStringPKc
_Z8printIntiii
_ZN15MemoryAllocator8allocateEm
_ZN15MemoryAllocator10deallocateEPv
_ZN15MemoryAllocator14get_free_spaceEv
_ZN15MemoryAllocator22get_largest_free_blockEv
_ZN3PCBC1EPFvPvES0_S0_
_ZN3PCB4exitEv
GAS LISTING /tmp/ccSNmVrS.s 			page 56


_ZN3PCB8dispatchEv
_ZN3PCB5startEv
_ZN13BackSemaphoreC1Ej
_ZN13BackSemaphoreD1Ev
_ZN13BackSemaphore4waitEv
_ZN13BackSemaphore6signalEv
is_console
__getc
__putc
timerCounter
console_handler
_Unwind_Resume
__gxx_personality_v0
