GAS LISTING /tmp/ccSWjjd2.s 			page 1


   1              		.file	"Scheduler.cpp"
   2              		.option pic
   3              		.option norelax
   4              		.text
   5              	.Ltext0:
   6              		.align	2
   7              		.globl	_ZN9Scheduler4pushEP3PCB
   9              	_ZN9Scheduler4pushEP3PCB:
  10              	.LFB2:
  11              		.file 1 "src/Scheduler.cpp"
   1:src/Scheduler.cpp **** #include "../h/Scheduler.hpp"
   2:src/Scheduler.cpp **** 
   3:src/Scheduler.cpp **** PCB* Scheduler::head = nullptr;
   4:src/Scheduler.cpp **** PCB* Scheduler::tail = nullptr;
   5:src/Scheduler.cpp **** 
   6:src/Scheduler.cpp **** void Scheduler::push(PCB* pcb) {
  12              		.loc 1 6 32
  13              		.cfi_startproc
  14              	.LVL0:
  15 0000 130101FF 		addi	sp,sp,-16
  16              		.cfi_def_cfa_offset 16
  17 0004 23348100 		sd	s0,8(sp)
  18              		.cfi_offset 8, -8
  19 0008 13040101 		addi	s0,sp,16
  20              		.cfi_def_cfa 8, 0
   7:src/Scheduler.cpp ****     pcb->next = nullptr;
  21              		.loc 1 7 5
  22              		.loc 1 7 15 is_stmt 0
  23 000c 23340502 		sd	zero,40(a0)
   8:src/Scheduler.cpp ****     if (tail) {
  24              		.loc 1 8 5 is_stmt 1
  25              		.loc 1 8 13 is_stmt 0
  26 0010 97070000 		ld	a5,.LANCHOR0
  26      83B70700 
  27              		.loc 1 8 5
  28 0018 638E0700 		beqz	a5,.L2
   9:src/Scheduler.cpp ****         tail->next = pcb;
  29              		.loc 1 9 9 is_stmt 1
  30              		.loc 1 9 20 is_stmt 0
  31 001c 23B4A702 		sd	a0,40(a5)
  32              	.L3:
  10:src/Scheduler.cpp ****     } else {
  11:src/Scheduler.cpp ****         head = pcb;
  12:src/Scheduler.cpp ****     }
  13:src/Scheduler.cpp ****     tail = pcb;
  33              		.loc 1 13 5 is_stmt 1
  34              		.loc 1 13 10 is_stmt 0
  35 0020 97070000 		sd	a0,.LANCHOR0,a5
  35      23B0A700 
  14:src/Scheduler.cpp **** }
  36              		.loc 1 14 1
  37 0028 03348100 		ld	s0,8(sp)
  38              		.cfi_remember_state
  39              		.cfi_restore 8
  40              		.cfi_def_cfa 2, 16
  41 002c 13010101 		addi	sp,sp,16
  42              		.cfi_def_cfa_offset 0
GAS LISTING /tmp/ccSWjjd2.s 			page 2


  43 0030 67800000 		jr	ra
  44              	.L2:
  45              		.cfi_restore_state
  11:src/Scheduler.cpp ****     }
  46              		.loc 1 11 9 is_stmt 1
  11:src/Scheduler.cpp ****     }
  47              		.loc 1 11 14 is_stmt 0
  48 0034 97070000 		sd	a0,.LANCHOR0+8,a5
  48      23B0A700 
  49 003c 6FF05FFE 		j	.L3
  50              		.cfi_endproc
  51              	.LFE2:
  53              		.align	2
  54              		.globl	_ZN9Scheduler7getNextEv
  56              	_ZN9Scheduler7getNextEv:
  57              	.LFB3:
  15:src/Scheduler.cpp **** 
  16:src/Scheduler.cpp **** PCB* Scheduler::getNext() {
  58              		.loc 1 16 27 is_stmt 1
  59              		.cfi_startproc
  60 0040 130101FF 		addi	sp,sp,-16
  61              		.cfi_def_cfa_offset 16
  62 0044 23348100 		sd	s0,8(sp)
  63              		.cfi_offset 8, -8
  64 0048 13040101 		addi	s0,sp,16
  65              		.cfi_def_cfa 8, 0
  66 004c 6F008001 		j	.L8
  67              	.LVL1:
  68              	.L10:
  69              	.LBB2:
  17:src/Scheduler.cpp ****     while (head != nullptr) {
  18:src/Scheduler.cpp ****         PCB* pcb = head;
  19:src/Scheduler.cpp ****         head = head->next;
  20:src/Scheduler.cpp ****         pcb->next = nullptr;
  21:src/Scheduler.cpp **** 
  22:src/Scheduler.cpp ****         if (!head) {
  23:src/Scheduler.cpp ****             tail = nullptr;
  70              		.loc 1 23 13
  71              		.loc 1 23 18 is_stmt 0
  72 0050 97070000 		sd	zero,.LANCHOR0,a5
  72      23B00700 
  73              	.L7:
  24:src/Scheduler.cpp ****         }
  25:src/Scheduler.cpp **** 
  26:src/Scheduler.cpp ****         if (pcb->state != ThreadState::FINISHED) {
  74              		.loc 1 26 9 is_stmt 1
  75              		.loc 1 26 18 is_stmt 0
  76 0058 03270500 		lw	a4,0(a0)
  77              		.loc 1 26 9
  78 005c 93074000 		li	a5,4
  79 0060 6314F702 		bne	a4,a5,.L5
  80              	.LVL2:
  81              	.L8:
  82              	.LBE2:
  17:src/Scheduler.cpp ****     while (head != nullptr) {
  83              		.loc 1 17 5 is_stmt 1
  17:src/Scheduler.cpp ****     while (head != nullptr) {
GAS LISTING /tmp/ccSWjjd2.s 			page 3


  84              		.loc 1 17 17
  85 0064 17050000 		ld	a0,.LANCHOR0+8
  85      03350500 
  86 006c 630E0500 		beqz	a0,.L5
  87              	.LBB3:
  18:src/Scheduler.cpp ****         head = head->next;
  88              		.loc 1 18 9
  89              	.LVL3:
  19:src/Scheduler.cpp ****         pcb->next = nullptr;
  90              		.loc 1 19 9
  19:src/Scheduler.cpp ****         pcb->next = nullptr;
  91              		.loc 1 19 22 is_stmt 0
  92 0070 83378502 		ld	a5,40(a0)
  19:src/Scheduler.cpp ****         pcb->next = nullptr;
  93              		.loc 1 19 14
  94 0074 17070000 		sd	a5,.LANCHOR0+8,a4
  94      2330F700 
  20:src/Scheduler.cpp **** 
  95              		.loc 1 20 9 is_stmt 1
  20:src/Scheduler.cpp **** 
  96              		.loc 1 20 19 is_stmt 0
  97 007c 23340502 		sd	zero,40(a0)
  22:src/Scheduler.cpp ****             tail = nullptr;
  98              		.loc 1 22 9 is_stmt 1
  99 0080 E39C07FC 		bnez	a5,.L7
 100 0084 6FF0DFFC 		j	.L10
 101              	.LVL4:
 102              	.L5:
 103              	.LBE3:
  27:src/Scheduler.cpp ****             return pcb;
  28:src/Scheduler.cpp ****         }
  29:src/Scheduler.cpp **** 
  30:src/Scheduler.cpp ****     }
  31:src/Scheduler.cpp **** 
  32:src/Scheduler.cpp ****     return nullptr;
  33:src/Scheduler.cpp **** }
 104              		.loc 1 33 1 is_stmt 0
 105 0088 03348100 		ld	s0,8(sp)
 106              		.cfi_restore 8
 107              		.cfi_def_cfa 2, 16
 108 008c 13010101 		addi	sp,sp,16
 109              		.cfi_def_cfa_offset 0
 110 0090 67800000 		jr	ra
 111              		.cfi_endproc
 112              	.LFE3:
 114              		.align	2
 115              		.globl	_ZN9Scheduler7isEmptyEv
 117              	_ZN9Scheduler7isEmptyEv:
 118              	.LFB4:
  34:src/Scheduler.cpp **** 
  35:src/Scheduler.cpp **** 
  36:src/Scheduler.cpp **** bool Scheduler::isEmpty() {
 119              		.loc 1 36 27 is_stmt 1
 120              		.cfi_startproc
 121 0094 130101FF 		addi	sp,sp,-16
 122              		.cfi_def_cfa_offset 16
 123 0098 23348100 		sd	s0,8(sp)
GAS LISTING /tmp/ccSWjjd2.s 			page 4


 124              		.cfi_offset 8, -8
 125 009c 13040101 		addi	s0,sp,16
 126              		.cfi_def_cfa 8, 0
  37:src/Scheduler.cpp ****     return head == nullptr;
 127              		.loc 1 37 5
  38:src/Scheduler.cpp **** }...
 128              		.loc 1 38 1 is_stmt 0
 129 00a0 17050000 		ld	a0,.LANCHOR0+8
 129      03350500 
 130 00a8 13351500 		seqz	a0,a0
 131 00ac 03348100 		ld	s0,8(sp)
 132              		.cfi_restore 8
 133              		.cfi_def_cfa 2, 16
 134 00b0 13010101 		addi	sp,sp,16
 135              		.cfi_def_cfa_offset 0
 136 00b4 67800000 		jr	ra
 137              		.cfi_endproc
 138              	.LFE4:
 140              		.globl	_ZN9Scheduler4tailE
 141              		.globl	_ZN9Scheduler4headE
 142              		.bss
 143              		.align	3
 144              		.set	.LANCHOR0,. + 0
 147              	_ZN9Scheduler4tailE:
 148 0000 00000000 		.zero	8
 148      00000000 
 151              	_ZN9Scheduler4headE:
 152 0008 00000000 		.zero	8
 152      00000000 
 153              		.text
 154              	.Letext0:
 155              		.file 2 "src/../h/../h/../lib/hw.h"
 156              		.file 3 "src/../h/PCB.hpp"
 157              		.file 4 "src/../h/Scheduler.hpp"
GAS LISTING /tmp/ccSWjjd2.s 			page 5


DEFINED SYMBOLS
                            *ABS*:0000000000000000 Scheduler.cpp
     /tmp/ccSWjjd2.s:9      .text:0000000000000000 _ZN9Scheduler4pushEP3PCB
     /tmp/ccSWjjd2.s:13     .text:0000000000000000 .L0 
     /tmp/ccSWjjd2.s:15     .text:0000000000000000 .L0 
     /tmp/ccSWjjd2.s:16     .text:0000000000000004 .L0 
     /tmp/ccSWjjd2.s:18     .text:0000000000000008 .L0 
     /tmp/ccSWjjd2.s:20     .text:000000000000000c .L0 
     /tmp/ccSWjjd2.s:22     .text:000000000000000c .L0 
     /tmp/ccSWjjd2.s:23     .text:000000000000000c .L0 
     /tmp/ccSWjjd2.s:25     .text:0000000000000010 .L0 
     /tmp/ccSWjjd2.s:26     .text:0000000000000010 .L0 
     /tmp/ccSWjjd2.s:28     .text:0000000000000018 .L0 
     /tmp/ccSWjjd2.s:30     .text:000000000000001c .L0 
     /tmp/ccSWjjd2.s:31     .text:000000000000001c .L0 
     /tmp/ccSWjjd2.s:34     .text:0000000000000020 .L0 
     /tmp/ccSWjjd2.s:35     .text:0000000000000020 .L0 
     /tmp/ccSWjjd2.s:37     .text:0000000000000028 .L0 
     /tmp/ccSWjjd2.s:38     .text:000000000000002c .L0 
     /tmp/ccSWjjd2.s:39     .text:000000000000002c .L0 
     /tmp/ccSWjjd2.s:40     .text:000000000000002c .L0 
     /tmp/ccSWjjd2.s:42     .text:0000000000000030 .L0 
     /tmp/ccSWjjd2.s:45     .text:0000000000000034 .L0 
     /tmp/ccSWjjd2.s:47     .text:0000000000000034 .L0 
     /tmp/ccSWjjd2.s:48     .text:0000000000000034 .L0 
     /tmp/ccSWjjd2.s:50     .text:0000000000000040 .L0 
     /tmp/ccSWjjd2.s:56     .text:0000000000000040 _ZN9Scheduler7getNextEv
     /tmp/ccSWjjd2.s:59     .text:0000000000000040 .L0 
     /tmp/ccSWjjd2.s:60     .text:0000000000000040 .L0 
     /tmp/ccSWjjd2.s:61     .text:0000000000000044 .L0 
     /tmp/ccSWjjd2.s:63     .text:0000000000000048 .L0 
     /tmp/ccSWjjd2.s:65     .text:000000000000004c .L0 
     /tmp/ccSWjjd2.s:71     .text:0000000000000050 .L0 
     /tmp/ccSWjjd2.s:72     .text:0000000000000050 .L0 
     /tmp/ccSWjjd2.s:75     .text:0000000000000058 .L0 
     /tmp/ccSWjjd2.s:76     .text:0000000000000058 .L0 
     /tmp/ccSWjjd2.s:78     .text:000000000000005c .L0 
     /tmp/ccSWjjd2.s:84     .text:0000000000000064 .L0 
     /tmp/ccSWjjd2.s:85     .text:0000000000000064 .L0 
     /tmp/ccSWjjd2.s:90     .text:0000000000000070 .L0 
     /tmp/ccSWjjd2.s:91     .text:0000000000000070 .L0 
     /tmp/ccSWjjd2.s:92     .text:0000000000000070 .L0 
     /tmp/ccSWjjd2.s:94     .text:0000000000000074 .L0 
     /tmp/ccSWjjd2.s:96     .text:000000000000007c .L0 
     /tmp/ccSWjjd2.s:97     .text:000000000000007c .L0 
     /tmp/ccSWjjd2.s:99     .text:0000000000000080 .L0 
     /tmp/ccSWjjd2.s:105    .text:0000000000000088 .L0 
     /tmp/ccSWjjd2.s:106    .text:000000000000008c .L0 
     /tmp/ccSWjjd2.s:107    .text:000000000000008c .L0 
     /tmp/ccSWjjd2.s:109    .text:0000000000000090 .L0 
     /tmp/ccSWjjd2.s:111    .text:0000000000000094 .L0 
     /tmp/ccSWjjd2.s:117    .text:0000000000000094 _ZN9Scheduler7isEmptyEv
     /tmp/ccSWjjd2.s:120    .text:0000000000000094 .L0 
     /tmp/ccSWjjd2.s:121    .text:0000000000000094 .L0 
     /tmp/ccSWjjd2.s:122    .text:0000000000000098 .L0 
     /tmp/ccSWjjd2.s:124    .text:000000000000009c .L0 
     /tmp/ccSWjjd2.s:126    .text:00000000000000a0 .L0 
GAS LISTING /tmp/ccSWjjd2.s 			page 6


     /tmp/ccSWjjd2.s:128    .text:00000000000000a0 .L0 
     /tmp/ccSWjjd2.s:129    .text:00000000000000a0 .L0 
     /tmp/ccSWjjd2.s:132    .text:00000000000000b0 .L0 
     /tmp/ccSWjjd2.s:133    .text:00000000000000b0 .L0 
     /tmp/ccSWjjd2.s:135    .text:00000000000000b4 .L0 
     /tmp/ccSWjjd2.s:137    .text:00000000000000b8 .L0 
     /tmp/ccSWjjd2.s:147    .bss:0000000000000000 _ZN9Scheduler4tailE
     /tmp/ccSWjjd2.s:151    .bss:0000000000000008 _ZN9Scheduler4headE
     /tmp/ccSWjjd2.s:144    .bss:0000000000000000 .LANCHOR0
     /tmp/ccSWjjd2.s:158    .text:00000000000000b8 .L0 
     /tmp/ccSWjjd2.s:26     .text:0000000000000010 .L0 
     /tmp/ccSWjjd2.s:35     .text:0000000000000020 .L0 
     /tmp/ccSWjjd2.s:48     .text:0000000000000034 .L0 
     /tmp/ccSWjjd2.s:72     .text:0000000000000050 .L0 
     /tmp/ccSWjjd2.s:85     .text:0000000000000064 .L0 
     /tmp/ccSWjjd2.s:94     .text:0000000000000074 .L0 
     /tmp/ccSWjjd2.s:129    .text:00000000000000a0 .L0 
     /tmp/ccSWjjd2.s:44     .text:0000000000000034 .L2
     /tmp/ccSWjjd2.s:32     .text:0000000000000020 .L3
     /tmp/ccSWjjd2.s:81     .text:0000000000000064 .L8
     /tmp/ccSWjjd2.s:102    .text:0000000000000088 .L5
     /tmp/ccSWjjd2.s:73     .text:0000000000000058 .L7
     /tmp/ccSWjjd2.s:68     .text:0000000000000050 .L10
     /tmp/ccSWjjd2.s:642    .debug_abbrev:0000000000000000 .Ldebug_abbrev0
     /tmp/ccSWjjd2.s:1339   .debug_str:00000000000001a8 .LASF58
     /tmp/ccSWjjd2.s:1347   .debug_str:0000000000000286 .LASF59
     /tmp/ccSWjjd2.s:1385   .debug_str:000000000000038c .LASF60
     /tmp/ccSWjjd2.s:5      .text:0000000000000000 .Ltext0
     /tmp/ccSWjjd2.s:154    .text:00000000000000b8 .Letext0
     /tmp/ccSWjjd2.s:1273   .debug_line:0000000000000000 .Ldebug_line0
     /tmp/ccSWjjd2.s:1351   .debug_str:00000000000002a0 .LASF0
     /tmp/ccSWjjd2.s:1329   .debug_str:0000000000000163 .LASF1
     /tmp/ccSWjjd2.s:1317   .debug_str:0000000000000115 .LASF2
     /tmp/ccSWjjd2.s:1293   .debug_str:0000000000000055 .LASF4
     /tmp/ccSWjjd2.s:1325   .debug_str:0000000000000148 .LASF3
     /tmp/ccSWjjd2.s:1279   .debug_str:000000000000001c .LASF5
     /tmp/ccSWjjd2.s:1277   .debug_str:0000000000000009 .LASF6
     /tmp/ccSWjjd2.s:1309   .debug_str:00000000000000cb .LASF7
     /tmp/ccSWjjd2.s:1363   .debug_str:00000000000002f7 .LASF8
     /tmp/ccSWjjd2.s:1291   .debug_str:0000000000000047 .LASF9
     /tmp/ccSWjjd2.s:1401   .debug_str:00000000000003f9 .LASF10
     /tmp/ccSWjjd2.s:1313   .debug_str:00000000000000f6 .LASF11
     /tmp/ccSWjjd2.s:1391   .debug_str:00000000000003b4 .LASF12
     /tmp/ccSWjjd2.s:1373   .debug_str:000000000000034a .LASF13
     /tmp/ccSWjjd2.s:1331   .debug_str:0000000000000176 .LASF14
     /tmp/ccSWjjd2.s:1303   .debug_str:0000000000000093 .LASF15
     /tmp/ccSWjjd2.s:1369   .debug_str:000000000000032f .LASF16
     /tmp/ccSWjjd2.s:1359   .debug_str:00000000000002db .LASF61
     /tmp/ccSWjjd2.s:1323   .debug_str:0000000000000142 .LASF17
     /tmp/ccSWjjd2.s:1393   .debug_str:00000000000003c4 .LASF18
     /tmp/ccSWjjd2.s:1345   .debug_str:000000000000027e .LASF19
     /tmp/ccSWjjd2.s:1379   .debug_str:0000000000000376 .LASF20
     /tmp/ccSWjjd2.s:1305   .debug_str:00000000000000a9 .LASF62
     /tmp/ccSWjjd2.s:1371   .debug_str:0000000000000345 .LASF21
     /tmp/ccSWjjd2.s:1397   .debug_str:00000000000003d9 .LASF23
     /tmp/ccSWjjd2.s:1301   .debug_str:000000000000008e .LASF22
     /tmp/ccSWjjd2.s:1365   .debug_str:0000000000000307 .LASF24
GAS LISTING /tmp/ccSWjjd2.s 			page 7


     /tmp/ccSWjjd2.s:1361   .debug_str:00000000000002e7 .LASF27
     /tmp/ccSWjjd2.s:1333   .debug_str:0000000000000182 .LASF29
     /tmp/ccSWjjd2.s:1353   .debug_str:00000000000002ad .LASF25
     /tmp/ccSWjjd2.s:1315   .debug_str:0000000000000105 .LASF26
     /tmp/ccSWjjd2.s:1275   .debug_str:0000000000000000 .LASF28
     /tmp/ccSWjjd2.s:1319   .debug_str:0000000000000123 .LASF30
     /tmp/ccSWjjd2.s:1383   .debug_str:0000000000000387 .LASF31
     /tmp/ccSWjjd2.s:1375   .debug_str:000000000000035a .LASF32
     /tmp/ccSWjjd2.s:1285   .debug_str:0000000000000030 .LASF33
     /tmp/ccSWjjd2.s:1335   .debug_str:000000000000019d .LASF39
     /tmp/ccSWjjd2.s:1337   .debug_str:00000000000001a3 .LASF34
     /tmp/ccSWjjd2.s:1327   .debug_str:000000000000015a .LASF35
     /tmp/ccSWjjd2.s:1341   .debug_str:000000000000026c .LASF36
     /tmp/ccSWjjd2.s:1367   .debug_str:0000000000000321 .LASF37
     /tmp/ccSWjjd2.s:1281   .debug_str:0000000000000023 .LASF38
     /tmp/ccSWjjd2.s:1283   .debug_str:0000000000000028 .LASF40
     /tmp/ccSWjjd2.s:1287   .debug_str:0000000000000036 .LASF41
     /tmp/ccSWjjd2.s:1395   .debug_str:00000000000003cc .LASF42
     /tmp/ccSWjjd2.s:1321   .debug_str:0000000000000136 .LASF43
     /tmp/ccSWjjd2.s:1355   .debug_str:00000000000002b3 .LASF45
     /tmp/ccSWjjd2.s:1377   .debug_str:0000000000000369 .LASF47
     /tmp/ccSWjjd2.s:1307   .debug_str:00000000000000c0 .LASF63
     /tmp/ccSWjjd2.s:1387   .debug_str:00000000000003a5 .LASF44
     /tmp/ccSWjjd2.s:1289   .debug_str:0000000000000042 .LASF46
     /tmp/ccSWjjd2.s:1299   .debug_str:0000000000000075 .LASF48
     /tmp/ccSWjjd2.s:1349   .debug_str:0000000000000298 .LASF49
     /tmp/ccSWjjd2.s:1311   .debug_str:00000000000000de .LASF51
     /tmp/ccSWjjd2.s:1381   .debug_str:000000000000037f .LASF50
     /tmp/ccSWjjd2.s:1357   .debug_str:00000000000002c3 .LASF52
     /tmp/ccSWjjd2.s:1343   .debug_str:0000000000000279 .LASF53
     /tmp/ccSWjjd2.s:1389   .debug_str:00000000000003af .LASF54
     /tmp/ccSWjjd2.s:1295   .debug_str:000000000000005c .LASF55
     /tmp/ccSWjjd2.s:1399   .debug_str:00000000000003e5 .LASF56
     /tmp/ccSWjjd2.s:1297   .debug_str:0000000000000061 .LASF57
     /tmp/ccSWjjd2.s:118    .text:0000000000000094 .LFB4
     /tmp/ccSWjjd2.s:138    .text:00000000000000b8 .LFE4
     /tmp/ccSWjjd2.s:57     .text:0000000000000040 .LFB3
     /tmp/ccSWjjd2.s:112    .text:0000000000000094 .LFE3
     /tmp/ccSWjjd2.s:1265   .debug_ranges:0000000000000000 .Ldebug_ranges0
     /tmp/ccSWjjd2.s:1241   .debug_loc:0000000000000000 .LLST0
     /tmp/ccSWjjd2.s:10     .text:0000000000000000 .LFB2
     /tmp/ccSWjjd2.s:51     .text:0000000000000040 .LFE2
     /tmp/ccSWjjd2.s:67     .text:0000000000000050 .LVL1
     /tmp/ccSWjjd2.s:80     .text:0000000000000064 .LVL2
     /tmp/ccSWjjd2.s:89     .text:0000000000000070 .LVL3
     /tmp/ccSWjjd2.s:101    .text:0000000000000088 .LVL4
     /tmp/ccSWjjd2.s:159    .debug_info:0000000000000000 .Ldebug_info0
     /tmp/ccSWjjd2.s:69     .text:0000000000000050 .LBB2
     /tmp/ccSWjjd2.s:82     .text:0000000000000064 .LBE2
     /tmp/ccSWjjd2.s:87     .text:0000000000000070 .LBB3
     /tmp/ccSWjjd2.s:103    .text:0000000000000088 .LBE3

NO UNDEFINED SYMBOLS
