GAS LISTING /tmp/ccC3GnLk.s 			page 1


   1              		.file	"syscall_cpp.cpp"
   2              		.option pic
   3              		.option norelax
   4              		.text
   5              	.Ltext0:
   6              		.section	.text._ZN6Thread3runEv,"axG",@progbits,_ZN6Thread3runEv,comdat
   7              		.align	2
   8              		.weak	_ZN6Thread3runEv
  10              	_ZN6Thread3runEv:
  11              	.LFB0:
  12              		.file 1 "src/../h/syscall_cpp.hpp"
   1:src/../h/syscall_cpp.hpp **** #pragma once
   2:src/../h/syscall_cpp.hpp **** #include "syscall_c.hpp"
   3:src/../h/syscall_cpp.hpp **** void* operator new (size_t);
   4:src/../h/syscall_cpp.hpp **** void operator delete (void*);
   5:src/../h/syscall_cpp.hpp **** class Thread{
   6:src/../h/syscall_cpp.hpp **** public:
   7:src/../h/syscall_cpp.hpp ****  Thread (void (*body)(void*), void* arg);
   8:src/../h/syscall_cpp.hpp ****  virtual ~Thread ();
   9:src/../h/syscall_cpp.hpp ****  int start ();
  10:src/../h/syscall_cpp.hpp ****  static void dispatch ();
  11:src/../h/syscall_cpp.hpp ****  static int sleep (time_t);
  12:src/../h/syscall_cpp.hpp **** 
  13:src/../h/syscall_cpp.hpp ****  friend void wrapper(void* f);
  14:src/../h/syscall_cpp.hpp **** protected:
  15:src/../h/syscall_cpp.hpp ****  Thread ();
  16:src/../h/syscall_cpp.hpp ****  virtual void run () {}
  13              		.loc 1 16 15
  14              		.cfi_startproc
  15              	.LVL0:
  16 0000 130101FF 		addi	sp,sp,-16
  17              		.cfi_def_cfa_offset 16
  18 0004 23348100 		sd	s0,8(sp)
  19              		.cfi_offset 8, -8
  20 0008 13040101 		addi	s0,sp,16
  21              		.cfi_def_cfa 8, 0
  22              		.loc 1 16 23 is_stmt 0
  23 000c 03348100 		ld	s0,8(sp)
  24              		.cfi_restore 8
  25              		.cfi_def_cfa 2, 16
  26 0010 13010101 		addi	sp,sp,16
  27              		.cfi_def_cfa_offset 0
  28 0014 67800000 		jr	ra
  29              		.cfi_endproc
  30              	.LFE0:
  32              		.text
  33              		.align	2
  34              		.globl	_Z7wrapperPv
  36              	_Z7wrapperPv:
  37              	.LFB6:
  38              		.file 2 "src/syscall_cpp.cpp"
   1:src/syscall_cpp.cpp **** #include "../h/syscall_cpp.hpp"
   2:src/syscall_cpp.cpp **** #include "../lib/console.h"
   3:src/syscall_cpp.cpp **** 
   4:src/syscall_cpp.cpp **** void* operator new (size_t size){
   5:src/syscall_cpp.cpp ****     return mem_alloc(size);
   6:src/syscall_cpp.cpp **** }
GAS LISTING /tmp/ccC3GnLk.s 			page 2


   7:src/syscall_cpp.cpp **** void operator delete (void* ptr){
   8:src/syscall_cpp.cpp ****     mem_free(ptr);
   9:src/syscall_cpp.cpp **** }
  10:src/syscall_cpp.cpp **** 
  11:src/syscall_cpp.cpp **** Thread::Thread(void (*body)(void*), void* arg){
  12:src/syscall_cpp.cpp ****     thread_create(&myHandle, body, arg);
  13:src/syscall_cpp.cpp **** }
  14:src/syscall_cpp.cpp **** 
  15:src/syscall_cpp.cpp **** void wrapper(void* t) {
  39              		.loc 2 15 23 is_stmt 1
  40              		.cfi_startproc
  41              	.LVL1:
  16:src/syscall_cpp.cpp ****     if (t) {
  42              		.loc 2 16 5
  43 0000 63080502 		beqz	a0,.L6
  15:src/syscall_cpp.cpp ****     if (t) {
  44              		.loc 2 15 23 is_stmt 0
  45 0004 130101FF 		addi	sp,sp,-16
  46              		.cfi_def_cfa_offset 16
  47 0008 23341100 		sd	ra,8(sp)
  48 000c 23308100 		sd	s0,0(sp)
  49              		.cfi_offset 1, -8
  50              		.cfi_offset 8, -16
  51 0010 13040101 		addi	s0,sp,16
  52              		.cfi_def_cfa 8, 0
  17:src/syscall_cpp.cpp ****         ((Thread*)t)->run();
  53              		.loc 2 17 9 is_stmt 1
  54              		.loc 2 17 27 is_stmt 0
  55 0014 83370500 		ld	a5,0(a0)
  56 0018 83B70701 		ld	a5,16(a5)
  57              		.loc 2 17 26
  58 001c E7800700 		jalr	a5
  59              	.LVL2:
  18:src/syscall_cpp.cpp ****     }
  19:src/syscall_cpp.cpp **** }
  60              		.loc 2 19 1
  61 0020 83308100 		ld	ra,8(sp)
  62              		.cfi_restore 1
  63 0024 03340100 		ld	s0,0(sp)
  64              		.cfi_restore 8
  65              		.cfi_def_cfa 2, 16
  66 0028 13010101 		addi	sp,sp,16
  67              		.cfi_def_cfa_offset 0
  68 002c 67800000 		jr	ra
  69              	.LVL3:
  70              	.L6:
  71 0030 67800000 		ret
  72              		.cfi_endproc
  73              	.LFE6:
  75              		.align	2
  76              		.globl	_ZN9SemaphoreD2Ev
  78              	_ZN9SemaphoreD2Ev:
  79              	.LFB21:
  20:src/syscall_cpp.cpp **** 
  21:src/syscall_cpp.cpp **** Thread::Thread(){
  22:src/syscall_cpp.cpp ****     thread_create(&myHandle, &wrapper, this);
  23:src/syscall_cpp.cpp **** }
GAS LISTING /tmp/ccC3GnLk.s 			page 3


  24:src/syscall_cpp.cpp **** 
  25:src/syscall_cpp.cpp **** Thread::~Thread(){
  26:src/syscall_cpp.cpp ****     operator delete(&myHandle);
  27:src/syscall_cpp.cpp **** }
  28:src/syscall_cpp.cpp **** 
  29:src/syscall_cpp.cpp **** int Thread::start(){
  30:src/syscall_cpp.cpp ****     thread_start(&myHandle);
  31:src/syscall_cpp.cpp ****     return 0;
  32:src/syscall_cpp.cpp **** }
  33:src/syscall_cpp.cpp **** 
  34:src/syscall_cpp.cpp **** void Thread::dispatch(){
  35:src/syscall_cpp.cpp ****     thread_dispatch();
  36:src/syscall_cpp.cpp **** }
  37:src/syscall_cpp.cpp **** 
  38:src/syscall_cpp.cpp **** int Thread::sleep (time_t) {
  39:src/syscall_cpp.cpp ****     return 0;
  40:src/syscall_cpp.cpp **** }
  41:src/syscall_cpp.cpp **** 
  42:src/syscall_cpp.cpp **** 
  43:src/syscall_cpp.cpp **** Semaphore::Semaphore(unsigned init){
  44:src/syscall_cpp.cpp ****     sem_open(&myHandle, init);
  45:src/syscall_cpp.cpp **** }
  46:src/syscall_cpp.cpp **** 
  47:src/syscall_cpp.cpp **** Semaphore::~Semaphore(){
  80              		.loc 2 47 1 is_stmt 1
  81              		.cfi_startproc
  82              		.cfi_personality 0x9b,DW.ref.__gxx_personality_v0
  83              		.cfi_lsda 0x1b,.LLSDA21
  84              	.LVL4:
  85 0034 130101FF 		addi	sp,sp,-16
  86              		.cfi_def_cfa_offset 16
  87 0038 23341100 		sd	ra,8(sp)
  88 003c 23308100 		sd	s0,0(sp)
  89              		.cfi_offset 1, -8
  90              		.cfi_offset 8, -16
  91 0040 13040101 		addi	s0,sp,16
  92              		.cfi_def_cfa 8, 0
  93              	.LBB2:
  94              		.loc 2 47 23 is_stmt 0
  95 0044 97070000 		lla	a5,_ZTV9Semaphore+16
  95      93870700 
  96 004c 2330F500 		sd	a5,0(a0)
  48:src/syscall_cpp.cpp ****     sem_close(myHandle);
  97              		.loc 2 48 5 is_stmt 1
  98              		.loc 2 48 14 is_stmt 0
  99 0050 03358500 		ld	a0,8(a0)
 100              	.LVL5:
 101 0054 97000000 		call	_Z9sem_closeP13BackSemaphore@plt
 101      E7800000 
 102              	.LVL6:
 103              	.LBE2:
  49:src/syscall_cpp.cpp **** }
 104              		.loc 2 49 1
 105 005c 83308100 		ld	ra,8(sp)
 106              		.cfi_restore 1
 107 0060 03340100 		ld	s0,0(sp)
 108              		.cfi_restore 8
GAS LISTING /tmp/ccC3GnLk.s 			page 4


 109              		.cfi_def_cfa 2, 16
 110 0064 13010101 		addi	sp,sp,16
 111              		.cfi_def_cfa_offset 0
 112 0068 67800000 		jr	ra
 113              		.cfi_endproc
 114              	.LFE21:
 115              		.globl	__gxx_personality_v0
 116              		.section	.gcc_except_table,"a",@progbits
 117              	.LLSDA21:
 118 0000 FF       		.byte	0xff
 119 0001 FF       		.byte	0xff
 120 0002 03       		.byte	0x3
 121 0003 00       		.byte	0
 122              		.text
 124              		.globl	_ZN9SemaphoreD1Ev
 125              		.set	_ZN9SemaphoreD1Ev,_ZN9SemaphoreD2Ev
 126              		.align	2
 127              		.globl	_Znwm
 129              	_Znwm:
 130              	.LFB1:
   4:src/syscall_cpp.cpp ****     return mem_alloc(size);
 131              		.loc 2 4 33 is_stmt 1
 132              		.cfi_startproc
 133              	.LVL7:
 134 006c 130101FF 		addi	sp,sp,-16
 135              		.cfi_def_cfa_offset 16
 136 0070 23341100 		sd	ra,8(sp)
 137 0074 23308100 		sd	s0,0(sp)
 138              		.cfi_offset 1, -8
 139              		.cfi_offset 8, -16
 140 0078 13040101 		addi	s0,sp,16
 141              		.cfi_def_cfa 8, 0
   5:src/syscall_cpp.cpp **** }
 142              		.loc 2 5 5
   5:src/syscall_cpp.cpp **** }
 143              		.loc 2 5 21 is_stmt 0
 144 007c 97000000 		call	_Z9mem_allocm@plt
 144      E7800000 
 145              	.LVL8:
   6:src/syscall_cpp.cpp **** void operator delete (void* ptr){
 146              		.loc 2 6 1
 147 0084 83308100 		ld	ra,8(sp)
 148              		.cfi_restore 1
 149 0088 03340100 		ld	s0,0(sp)
 150              		.cfi_restore 8
 151              		.cfi_def_cfa 2, 16
 152 008c 13010101 		addi	sp,sp,16
 153              		.cfi_def_cfa_offset 0
 154 0090 67800000 		jr	ra
 155              		.cfi_endproc
 156              	.LFE1:
 158              		.align	2
 159              		.globl	_ZdlPv
 161              	_ZdlPv:
 162              	.LFB2:
   7:src/syscall_cpp.cpp ****     mem_free(ptr);
 163              		.loc 2 7 33 is_stmt 1
GAS LISTING /tmp/ccC3GnLk.s 			page 5


 164              		.cfi_startproc
 165              	.LVL9:
 166 0094 130101FF 		addi	sp,sp,-16
 167              		.cfi_def_cfa_offset 16
 168 0098 23341100 		sd	ra,8(sp)
 169 009c 23308100 		sd	s0,0(sp)
 170              		.cfi_offset 1, -8
 171              		.cfi_offset 8, -16
 172 00a0 13040101 		addi	s0,sp,16
 173              		.cfi_def_cfa 8, 0
   8:src/syscall_cpp.cpp **** }
 174              		.loc 2 8 5
   8:src/syscall_cpp.cpp **** }
 175              		.loc 2 8 13 is_stmt 0
 176 00a4 97000000 		call	_Z8mem_freePv@plt
 176      E7800000 
 177              	.LVL10:
   9:src/syscall_cpp.cpp **** 
 178              		.loc 2 9 1
 179 00ac 83308100 		ld	ra,8(sp)
 180              		.cfi_restore 1
 181 00b0 03340100 		ld	s0,0(sp)
 182              		.cfi_restore 8
 183              		.cfi_def_cfa 2, 16
 184 00b4 13010101 		addi	sp,sp,16
 185              		.cfi_def_cfa_offset 0
 186 00b8 67800000 		jr	ra
 187              		.cfi_endproc
 188              	.LFE2:
 190              		.align	2
 191              		.globl	_ZN6ThreadD2Ev
 193              	_ZN6ThreadD2Ev:
 194              	.LFB11:
  25:src/syscall_cpp.cpp ****     operator delete(&myHandle);
 195              		.loc 2 25 1 is_stmt 1
 196              		.cfi_startproc
 197              		.cfi_personality 0x9b,DW.ref.__gxx_personality_v0
 198              		.cfi_lsda 0x1b,.LLSDA11
 199              	.LVL11:
 200 00bc 130101FF 		addi	sp,sp,-16
 201              		.cfi_def_cfa_offset 16
 202 00c0 23341100 		sd	ra,8(sp)
 203 00c4 23308100 		sd	s0,0(sp)
 204              		.cfi_offset 1, -8
 205              		.cfi_offset 8, -16
 206 00c8 13040101 		addi	s0,sp,16
 207              		.cfi_def_cfa 8, 0
 208              	.LBB3:
  25:src/syscall_cpp.cpp ****     operator delete(&myHandle);
 209              		.loc 2 25 17 is_stmt 0
 210 00cc 97070000 		lla	a5,_ZTV6Thread+16
 210      93870700 
 211 00d4 2330F500 		sd	a5,0(a0)
  26:src/syscall_cpp.cpp **** }
 212              		.loc 2 26 5 is_stmt 1
  26:src/syscall_cpp.cpp **** }
 213              		.loc 2 26 20 is_stmt 0
GAS LISTING /tmp/ccC3GnLk.s 			page 6


 214 00d8 13058500 		addi	a0,a0,8
 215              	.LVL12:
 216 00dc 97000000 		call	_ZdlPv
 216      E7800000 
 217              	.LVL13:
 218              	.LBE3:
  27:src/syscall_cpp.cpp **** 
 219              		.loc 2 27 1
 220 00e4 83308100 		ld	ra,8(sp)
 221              		.cfi_restore 1
 222 00e8 03340100 		ld	s0,0(sp)
 223              		.cfi_restore 8
 224              		.cfi_def_cfa 2, 16
 225 00ec 13010101 		addi	sp,sp,16
 226              		.cfi_def_cfa_offset 0
 227 00f0 67800000 		jr	ra
 228              		.cfi_endproc
 229              	.LFE11:
 230              		.section	.gcc_except_table
 231              	.LLSDA11:
 232 0004 FF       		.byte	0xff
 233 0005 FF       		.byte	0xff
 234 0006 03       		.byte	0x3
 235 0007 00       		.byte	0
 236              		.text
 238              		.globl	_ZN6ThreadD1Ev
 239              		.set	_ZN6ThreadD1Ev,_ZN6ThreadD2Ev
 240              		.align	2
 241              		.globl	_ZN6ThreadD0Ev
 243              	_ZN6ThreadD0Ev:
 244              	.LFB13:
  25:src/syscall_cpp.cpp ****     operator delete(&myHandle);
 245              		.loc 2 25 1 is_stmt 1
 246              		.cfi_startproc
 247              	.LVL14:
 248 00f4 130101FE 		addi	sp,sp,-32
 249              		.cfi_def_cfa_offset 32
 250 00f8 233C1100 		sd	ra,24(sp)
 251 00fc 23388100 		sd	s0,16(sp)
 252 0100 23349100 		sd	s1,8(sp)
 253              		.cfi_offset 1, -8
 254              		.cfi_offset 8, -16
 255              		.cfi_offset 9, -24
 256 0104 13040102 		addi	s0,sp,32
 257              		.cfi_def_cfa 8, 0
 258 0108 93040500 		mv	s1,a0
  27:src/syscall_cpp.cpp **** 
 259              		.loc 2 27 1 is_stmt 0
 260 010c 97000000 		call	_ZN6ThreadD1Ev
 260      E7800000 
 261              	.LVL15:
 262 0114 13850400 		mv	a0,s1
 263 0118 97000000 		call	_ZdlPv
 263      E7800000 
 264              	.LVL16:
 265 0120 83308101 		ld	ra,24(sp)
 266              		.cfi_restore 1
GAS LISTING /tmp/ccC3GnLk.s 			page 7


 267 0124 03340101 		ld	s0,16(sp)
 268              		.cfi_restore 8
 269              		.cfi_def_cfa 2, 32
 270 0128 83348100 		ld	s1,8(sp)
 271              		.cfi_restore 9
 272              	.LVL17:
 273 012c 13010102 		addi	sp,sp,32
 274              		.cfi_def_cfa_offset 0
 275 0130 67800000 		jr	ra
 276              		.cfi_endproc
 277              	.LFE13:
 279              		.align	2
 280              		.globl	_ZN9SemaphoreD0Ev
 282              	_ZN9SemaphoreD0Ev:
 283              	.LFB23:
  47:src/syscall_cpp.cpp ****     sem_close(myHandle);
 284              		.loc 2 47 1 is_stmt 1
 285              		.cfi_startproc
 286              	.LVL18:
 287 0134 130101FE 		addi	sp,sp,-32
 288              		.cfi_def_cfa_offset 32
 289 0138 233C1100 		sd	ra,24(sp)
 290 013c 23388100 		sd	s0,16(sp)
 291 0140 23349100 		sd	s1,8(sp)
 292              		.cfi_offset 1, -8
 293              		.cfi_offset 8, -16
 294              		.cfi_offset 9, -24
 295 0144 13040102 		addi	s0,sp,32
 296              		.cfi_def_cfa 8, 0
 297 0148 93040500 		mv	s1,a0
 298              		.loc 2 49 1 is_stmt 0
 299 014c 97000000 		call	_ZN9SemaphoreD1Ev
 299      E7800000 
 300              	.LVL19:
 301 0154 13850400 		mv	a0,s1
 302 0158 97000000 		call	_ZdlPv
 302      E7800000 
 303              	.LVL20:
 304 0160 83308101 		ld	ra,24(sp)
 305              		.cfi_restore 1
 306 0164 03340101 		ld	s0,16(sp)
 307              		.cfi_restore 8
 308              		.cfi_def_cfa 2, 32
 309 0168 83348100 		ld	s1,8(sp)
 310              		.cfi_restore 9
 311              	.LVL21:
 312 016c 13010102 		addi	sp,sp,32
 313              		.cfi_def_cfa_offset 0
 314 0170 67800000 		jr	ra
 315              		.cfi_endproc
 316              	.LFE23:
 318              		.align	2
 319              		.globl	_ZN6ThreadC2EPFvPvES0_
 321              	_ZN6ThreadC2EPFvPvES0_:
 322              	.LFB4:
  11:src/syscall_cpp.cpp ****     thread_create(&myHandle, body, arg);
 323              		.loc 2 11 1 is_stmt 1
GAS LISTING /tmp/ccC3GnLk.s 			page 8


 324              		.cfi_startproc
 325              	.LVL22:
 326 0174 130101FF 		addi	sp,sp,-16
 327              		.cfi_def_cfa_offset 16
 328 0178 23341100 		sd	ra,8(sp)
 329 017c 23308100 		sd	s0,0(sp)
 330              		.cfi_offset 1, -8
 331              		.cfi_offset 8, -16
 332 0180 13040101 		addi	s0,sp,16
 333              		.cfi_def_cfa 8, 0
 334              	.LBB4:
  11:src/syscall_cpp.cpp ****     thread_create(&myHandle, body, arg);
 335              		.loc 2 11 46 is_stmt 0
 336 0184 97070000 		lla	a5,_ZTV6Thread+16
 336      93870700 
 337 018c 2330F500 		sd	a5,0(a0)
  12:src/syscall_cpp.cpp **** }
 338              		.loc 2 12 5 is_stmt 1
  12:src/syscall_cpp.cpp **** }
 339              		.loc 2 12 18 is_stmt 0
 340 0190 13058500 		addi	a0,a0,8
 341              	.LVL23:
 342 0194 97000000 		call	_Z13thread_createPP3PCBPFvPvES2_@plt
 342      E7800000 
 343              	.LVL24:
 344              	.LBE4:
  13:src/syscall_cpp.cpp **** 
 345              		.loc 2 13 1
 346 019c 83308100 		ld	ra,8(sp)
 347              		.cfi_restore 1
 348 01a0 03340100 		ld	s0,0(sp)
 349              		.cfi_restore 8
 350              		.cfi_def_cfa 2, 16
 351 01a4 13010101 		addi	sp,sp,16
 352              		.cfi_def_cfa_offset 0
 353 01a8 67800000 		jr	ra
 354              		.cfi_endproc
 355              	.LFE4:
 357              		.globl	_ZN6ThreadC1EPFvPvES0_
 358              		.set	_ZN6ThreadC1EPFvPvES0_,_ZN6ThreadC2EPFvPvES0_
 359              		.align	2
 360              		.globl	_ZN6ThreadC2Ev
 362              	_ZN6ThreadC2Ev:
 363              	.LFB8:
  21:src/syscall_cpp.cpp ****     thread_create(&myHandle, &wrapper, this);
 364              		.loc 2 21 1 is_stmt 1
 365              		.cfi_startproc
 366              	.LVL25:
 367 01ac 130101FF 		addi	sp,sp,-16
 368              		.cfi_def_cfa_offset 16
 369 01b0 23341100 		sd	ra,8(sp)
 370 01b4 23308100 		sd	s0,0(sp)
 371              		.cfi_offset 1, -8
 372              		.cfi_offset 8, -16
 373 01b8 13040101 		addi	s0,sp,16
 374              		.cfi_def_cfa 8, 0
 375              	.LBB5:
GAS LISTING /tmp/ccC3GnLk.s 			page 9


  21:src/syscall_cpp.cpp ****     thread_create(&myHandle, &wrapper, this);
 376              		.loc 2 21 16 is_stmt 0
 377 01bc 97070000 		lla	a5,_ZTV6Thread+16
 377      93870700 
 378 01c4 2330F500 		sd	a5,0(a0)
  22:src/syscall_cpp.cpp **** }
 379              		.loc 2 22 5 is_stmt 1
  22:src/syscall_cpp.cpp **** }
 380              		.loc 2 22 18 is_stmt 0
 381 01c8 13060500 		mv	a2,a0
 382 01cc 97050000 		lla	a1,_Z7wrapperPv
 382      93850500 
 383 01d4 13058500 		addi	a0,a0,8
 384              	.LVL26:
 385 01d8 97000000 		call	_Z13thread_createPP3PCBPFvPvES2_@plt
 385      E7800000 
 386              	.LVL27:
 387              	.LBE5:
  23:src/syscall_cpp.cpp **** 
 388              		.loc 2 23 1
 389 01e0 83308100 		ld	ra,8(sp)
 390              		.cfi_restore 1
 391 01e4 03340100 		ld	s0,0(sp)
 392              		.cfi_restore 8
 393              		.cfi_def_cfa 2, 16
 394 01e8 13010101 		addi	sp,sp,16
 395              		.cfi_def_cfa_offset 0
 396 01ec 67800000 		jr	ra
 397              		.cfi_endproc
 398              	.LFE8:
 400              		.globl	_ZN6ThreadC1Ev
 401              		.set	_ZN6ThreadC1Ev,_ZN6ThreadC2Ev
 402              		.align	2
 403              		.globl	_ZN6Thread5startEv
 405              	_ZN6Thread5startEv:
 406              	.LFB14:
  29:src/syscall_cpp.cpp ****     thread_start(&myHandle);
 407              		.loc 2 29 20 is_stmt 1
 408              		.cfi_startproc
 409              	.LVL28:
 410 01f0 130101FF 		addi	sp,sp,-16
 411              		.cfi_def_cfa_offset 16
 412 01f4 23341100 		sd	ra,8(sp)
 413 01f8 23308100 		sd	s0,0(sp)
 414              		.cfi_offset 1, -8
 415              		.cfi_offset 8, -16
 416 01fc 13040101 		addi	s0,sp,16
 417              		.cfi_def_cfa 8, 0
  30:src/syscall_cpp.cpp ****     return 0;
 418              		.loc 2 30 5
  30:src/syscall_cpp.cpp ****     return 0;
 419              		.loc 2 30 17 is_stmt 0
 420 0200 13058500 		addi	a0,a0,8
 421              	.LVL29:
 422 0204 97000000 		call	_Z12thread_startPP3PCB@plt
 422      E7800000 
 423              	.LVL30:
GAS LISTING /tmp/ccC3GnLk.s 			page 10


  31:src/syscall_cpp.cpp **** }
 424              		.loc 2 31 5 is_stmt 1
  32:src/syscall_cpp.cpp **** 
 425              		.loc 2 32 1 is_stmt 0
 426 020c 13050000 		li	a0,0
 427 0210 83308100 		ld	ra,8(sp)
 428              		.cfi_restore 1
 429 0214 03340100 		ld	s0,0(sp)
 430              		.cfi_restore 8
 431              		.cfi_def_cfa 2, 16
 432 0218 13010101 		addi	sp,sp,16
 433              		.cfi_def_cfa_offset 0
 434 021c 67800000 		jr	ra
 435              		.cfi_endproc
 436              	.LFE14:
 438              		.align	2
 439              		.globl	_ZN6Thread8dispatchEv
 441              	_ZN6Thread8dispatchEv:
 442              	.LFB15:
  34:src/syscall_cpp.cpp ****     thread_dispatch();
 443              		.loc 2 34 24 is_stmt 1
 444              		.cfi_startproc
 445 0220 130101FF 		addi	sp,sp,-16
 446              		.cfi_def_cfa_offset 16
 447 0224 23341100 		sd	ra,8(sp)
 448 0228 23308100 		sd	s0,0(sp)
 449              		.cfi_offset 1, -8
 450              		.cfi_offset 8, -16
 451 022c 13040101 		addi	s0,sp,16
 452              		.cfi_def_cfa 8, 0
  35:src/syscall_cpp.cpp **** }
 453              		.loc 2 35 5
  35:src/syscall_cpp.cpp **** }
 454              		.loc 2 35 20 is_stmt 0
 455 0230 97000000 		call	_Z15thread_dispatchv@plt
 455      E7800000 
 456              	.LVL31:
  36:src/syscall_cpp.cpp **** 
 457              		.loc 2 36 1
 458 0238 83308100 		ld	ra,8(sp)
 459              		.cfi_restore 1
 460 023c 03340100 		ld	s0,0(sp)
 461              		.cfi_restore 8
 462              		.cfi_def_cfa 2, 16
 463 0240 13010101 		addi	sp,sp,16
 464              		.cfi_def_cfa_offset 0
 465 0244 67800000 		jr	ra
 466              		.cfi_endproc
 467              	.LFE15:
 469              		.align	2
 470              		.globl	_ZN6Thread5sleepEm
 472              	_ZN6Thread5sleepEm:
 473              	.LFB16:
  38:src/syscall_cpp.cpp ****     return 0;
 474              		.loc 2 38 28 is_stmt 1
 475              		.cfi_startproc
 476 0248 130101FF 		addi	sp,sp,-16
GAS LISTING /tmp/ccC3GnLk.s 			page 11


 477              		.cfi_def_cfa_offset 16
 478 024c 23348100 		sd	s0,8(sp)
 479              		.cfi_offset 8, -8
 480 0250 13040101 		addi	s0,sp,16
 481              		.cfi_def_cfa 8, 0
  39:src/syscall_cpp.cpp **** }
 482              		.loc 2 39 5
  40:src/syscall_cpp.cpp **** 
 483              		.loc 2 40 1 is_stmt 0
 484 0254 13050000 		li	a0,0
 485 0258 03348100 		ld	s0,8(sp)
 486              		.cfi_restore 8
 487              		.cfi_def_cfa 2, 16
 488 025c 13010101 		addi	sp,sp,16
 489              		.cfi_def_cfa_offset 0
 490 0260 67800000 		jr	ra
 491              		.cfi_endproc
 492              	.LFE16:
 494              		.align	2
 495              		.globl	_ZN9SemaphoreC2Ej
 497              	_ZN9SemaphoreC2Ej:
 498              	.LFB18:
  43:src/syscall_cpp.cpp ****     sem_open(&myHandle, init);
 499              		.loc 2 43 1 is_stmt 1
 500              		.cfi_startproc
 501              	.LVL32:
 502 0264 130101FF 		addi	sp,sp,-16
 503              		.cfi_def_cfa_offset 16
 504 0268 23341100 		sd	ra,8(sp)
 505 026c 23308100 		sd	s0,0(sp)
 506              		.cfi_offset 1, -8
 507              		.cfi_offset 8, -16
 508 0270 13040101 		addi	s0,sp,16
 509              		.cfi_def_cfa 8, 0
 510              	.LBB6:
  43:src/syscall_cpp.cpp ****     sem_open(&myHandle, init);
 511              		.loc 2 43 35 is_stmt 0
 512 0274 97070000 		lla	a5,_ZTV9Semaphore+16
 512      93870700 
 513 027c 2330F500 		sd	a5,0(a0)
  44:src/syscall_cpp.cpp **** }
 514              		.loc 2 44 5 is_stmt 1
  44:src/syscall_cpp.cpp **** }
 515              		.loc 2 44 13 is_stmt 0
 516 0280 13058500 		addi	a0,a0,8
 517              	.LVL33:
 518 0284 97000000 		call	_Z8sem_openPP13BackSemaphorej@plt
 518      E7800000 
 519              	.LVL34:
 520              	.LBE6:
  45:src/syscall_cpp.cpp **** 
 521              		.loc 2 45 1
 522 028c 83308100 		ld	ra,8(sp)
 523              		.cfi_restore 1
 524 0290 03340100 		ld	s0,0(sp)
 525              		.cfi_restore 8
 526              		.cfi_def_cfa 2, 16
GAS LISTING /tmp/ccC3GnLk.s 			page 12


 527 0294 13010101 		addi	sp,sp,16
 528              		.cfi_def_cfa_offset 0
 529 0298 67800000 		jr	ra
 530              		.cfi_endproc
 531              	.LFE18:
 533              		.globl	_ZN9SemaphoreC1Ej
 534              		.set	_ZN9SemaphoreC1Ej,_ZN9SemaphoreC2Ej
 535              		.align	2
 536              		.globl	_ZN9Semaphore4waitEv
 538              	_ZN9Semaphore4waitEv:
 539              	.LFB24:
  50:src/syscall_cpp.cpp **** 
  51:src/syscall_cpp.cpp **** int Semaphore::wait(){
 540              		.loc 2 51 22 is_stmt 1
 541              		.cfi_startproc
 542              	.LVL35:
 543 029c 130101FF 		addi	sp,sp,-16
 544              		.cfi_def_cfa_offset 16
 545 02a0 23341100 		sd	ra,8(sp)
 546 02a4 23308100 		sd	s0,0(sp)
 547              		.cfi_offset 1, -8
 548              		.cfi_offset 8, -16
 549 02a8 13040101 		addi	s0,sp,16
 550              		.cfi_def_cfa 8, 0
  52:src/syscall_cpp.cpp ****     return sem_wait(myHandle);
 551              		.loc 2 52 5
 552              		.loc 2 52 20 is_stmt 0
 553 02ac 03358500 		ld	a0,8(a0)
 554              	.LVL36:
 555 02b0 97000000 		call	_Z8sem_waitP13BackSemaphore@plt
 555      E7800000 
 556              	.LVL37:
  53:src/syscall_cpp.cpp **** }
 557              		.loc 2 53 1
 558 02b8 83308100 		ld	ra,8(sp)
 559              		.cfi_restore 1
 560 02bc 03340100 		ld	s0,0(sp)
 561              		.cfi_restore 8
 562              		.cfi_def_cfa 2, 16
 563 02c0 13010101 		addi	sp,sp,16
 564              		.cfi_def_cfa_offset 0
 565 02c4 67800000 		jr	ra
 566              		.cfi_endproc
 567              	.LFE24:
 569              		.align	2
 570              		.globl	_ZN9Semaphore6signalEv
 572              	_ZN9Semaphore6signalEv:
 573              	.LFB25:
  54:src/syscall_cpp.cpp **** 
  55:src/syscall_cpp.cpp **** int Semaphore::signal(){
 574              		.loc 2 55 24 is_stmt 1
 575              		.cfi_startproc
 576              	.LVL38:
 577 02c8 130101FF 		addi	sp,sp,-16
 578              		.cfi_def_cfa_offset 16
 579 02cc 23341100 		sd	ra,8(sp)
 580 02d0 23308100 		sd	s0,0(sp)
GAS LISTING /tmp/ccC3GnLk.s 			page 13


 581              		.cfi_offset 1, -8
 582              		.cfi_offset 8, -16
 583 02d4 13040101 		addi	s0,sp,16
 584              		.cfi_def_cfa 8, 0
  56:src/syscall_cpp.cpp ****     return sem_signal(myHandle);
 585              		.loc 2 56 5
 586              		.loc 2 56 22 is_stmt 0
 587 02d8 03358500 		ld	a0,8(a0)
 588              	.LVL39:
 589 02dc 97000000 		call	_Z10sem_signalP13BackSemaphore@plt
 589      E7800000 
 590              	.LVL40:
  57:src/syscall_cpp.cpp **** }
 591              		.loc 2 57 1
 592 02e4 83308100 		ld	ra,8(sp)
 593              		.cfi_restore 1
 594 02e8 03340100 		ld	s0,0(sp)
 595              		.cfi_restore 8
 596              		.cfi_def_cfa 2, 16
 597 02ec 13010101 		addi	sp,sp,16
 598              		.cfi_def_cfa_offset 0
 599 02f0 67800000 		jr	ra
 600              		.cfi_endproc
 601              	.LFE25:
 603              		.align	2
 604              		.globl	_ZN7Console4getcEv
 606              	_ZN7Console4getcEv:
 607              	.LFB26:
  58:src/syscall_cpp.cpp **** 
  59:src/syscall_cpp.cpp **** char Console::getc () {
 608              		.loc 2 59 23 is_stmt 1
 609              		.cfi_startproc
 610 02f4 130101FF 		addi	sp,sp,-16
 611              		.cfi_def_cfa_offset 16
 612 02f8 23341100 		sd	ra,8(sp)
 613 02fc 23308100 		sd	s0,0(sp)
 614              		.cfi_offset 1, -8
 615              		.cfi_offset 8, -16
 616 0300 13040101 		addi	s0,sp,16
 617              		.cfi_def_cfa 8, 0
  60:src/syscall_cpp.cpp ****     return __getc();
 618              		.loc 2 60 5
 619              		.loc 2 60 18 is_stmt 0
 620 0304 97000000 		call	__getc@plt
 620      E7800000 
 621              	.LVL41:
  61:src/syscall_cpp.cpp **** }
 622              		.loc 2 61 1
 623 030c 83308100 		ld	ra,8(sp)
 624              		.cfi_restore 1
 625 0310 03340100 		ld	s0,0(sp)
 626              		.cfi_restore 8
 627              		.cfi_def_cfa 2, 16
 628 0314 13010101 		addi	sp,sp,16
 629              		.cfi_def_cfa_offset 0
 630 0318 67800000 		jr	ra
 631              		.cfi_endproc
GAS LISTING /tmp/ccC3GnLk.s 			page 14


 632              	.LFE26:
 634              		.align	2
 635              		.globl	_ZN7Console4putcEc
 637              	_ZN7Console4putcEc:
 638              	.LFB27:
  62:src/syscall_cpp.cpp **** void Console::putc (char c) {
 639              		.loc 2 62 29 is_stmt 1
 640              		.cfi_startproc
 641              	.LVL42:
 642 031c 130101FF 		addi	sp,sp,-16
 643              		.cfi_def_cfa_offset 16
 644 0320 23341100 		sd	ra,8(sp)
 645 0324 23308100 		sd	s0,0(sp)
 646              		.cfi_offset 1, -8
 647              		.cfi_offset 8, -16
 648 0328 13040101 		addi	s0,sp,16
 649              		.cfi_def_cfa 8, 0
  63:src/syscall_cpp.cpp ****     __putc(c);
 650              		.loc 2 63 5
 651              		.loc 2 63 11 is_stmt 0
 652 032c 97000000 		call	__putc@plt
 652      E7800000 
 653              	.LVL43:
  64:src/syscall_cpp.cpp **** }
 654              		.loc 2 64 1
 655 0334 83308100 		ld	ra,8(sp)
 656              		.cfi_restore 1
 657 0338 03340100 		ld	s0,0(sp)
 658              		.cfi_restore 8
 659              		.cfi_def_cfa 2, 16
 660 033c 13010101 		addi	sp,sp,16
 661              		.cfi_def_cfa_offset 0
 662 0340 67800000 		jr	ra
 663              		.cfi_endproc
 664              	.LFE27:
 666              		.weak	_ZTV6Thread
 667              		.section	.data.rel.ro.local._ZTV6Thread,"awG",@progbits,_ZTV6Thread,comdat
 668              		.align	3
 671              	_ZTV6Thread:
 672 0000 00000000 		.dword	0
 672      00000000 
 673 0008 00000000 		.dword	0
 673      00000000 
 674 0010 00000000 		.dword	_ZN6ThreadD1Ev
 674      00000000 
 675 0018 00000000 		.dword	_ZN6ThreadD0Ev
 675      00000000 
 676 0020 00000000 		.dword	_ZN6Thread3runEv
 676      00000000 
 677              		.weak	_ZTV9Semaphore
 678              		.section	.data.rel.ro.local._ZTV9Semaphore,"awG",@progbits,_ZTV9Semaphore,comdat
 679              		.align	3
 682              	_ZTV9Semaphore:
 683 0000 00000000 		.dword	0
 683      00000000 
 684 0008 00000000 		.dword	0
 684      00000000 
GAS LISTING /tmp/ccC3GnLk.s 			page 15


 685 0010 00000000 		.dword	_ZN9SemaphoreD1Ev
 685      00000000 
 686 0018 00000000 		.dword	_ZN9SemaphoreD0Ev
 686      00000000 
 687              		.text
 688              	.Letext0:
 689              		.file 3 "src/../h/syscall_c.hpp"
 690              		.file 4 "src/../h/../lib/hw.h"
 691              		.file 5 "src/../lib/console.h"
 3098              		.align	3
 3101              	DW.ref.__gxx_personality_v0:
 3102 0000 00000000 		.dword	__gxx_personality_v0
 3102      00000000 
 3103              		.ident	"GCC: (Ubuntu 9.4.0-1ubuntu1~20.04) 9.4.0"
 3104              		.section	.note.GNU-stack,"",@progbits
GAS LISTING /tmp/ccC3GnLk.s 			page 16


DEFINED SYMBOLS
                            *ABS*:0000000000000000 syscall_cpp.cpp
     /tmp/ccC3GnLk.s:10     .text._ZN6Thread3runEv:0000000000000000 _ZN6Thread3runEv
     /tmp/ccC3GnLk.s:14     .text._ZN6Thread3runEv:0000000000000000 .L0 
     /tmp/ccC3GnLk.s:16     .text._ZN6Thread3runEv:0000000000000000 .L0 
     /tmp/ccC3GnLk.s:17     .text._ZN6Thread3runEv:0000000000000004 .L0 
     /tmp/ccC3GnLk.s:19     .text._ZN6Thread3runEv:0000000000000008 .L0 
     /tmp/ccC3GnLk.s:21     .text._ZN6Thread3runEv:000000000000000c .L0 
     /tmp/ccC3GnLk.s:23     .text._ZN6Thread3runEv:000000000000000c .L0 
     /tmp/ccC3GnLk.s:24     .text._ZN6Thread3runEv:0000000000000010 .L0 
     /tmp/ccC3GnLk.s:25     .text._ZN6Thread3runEv:0000000000000010 .L0 
     /tmp/ccC3GnLk.s:27     .text._ZN6Thread3runEv:0000000000000014 .L0 
     /tmp/ccC3GnLk.s:29     .text._ZN6Thread3runEv:0000000000000018 .L0 
     /tmp/ccC3GnLk.s:36     .text:0000000000000000 _Z7wrapperPv
     /tmp/ccC3GnLk.s:40     .text:0000000000000000 .L0 
     /tmp/ccC3GnLk.s:42     .text:0000000000000000 .L0 
     /tmp/ccC3GnLk.s:43     .text:0000000000000000 .L0 
     /tmp/ccC3GnLk.s:45     .text:0000000000000004 .L0 
     /tmp/ccC3GnLk.s:46     .text:0000000000000008 .L0 
     /tmp/ccC3GnLk.s:49     .text:0000000000000010 .L0 
     /tmp/ccC3GnLk.s:50     .text:0000000000000010 .L0 
     /tmp/ccC3GnLk.s:52     .text:0000000000000014 .L0 
     /tmp/ccC3GnLk.s:54     .text:0000000000000014 .L0 
     /tmp/ccC3GnLk.s:55     .text:0000000000000014 .L0 
     /tmp/ccC3GnLk.s:58     .text:000000000000001c .L0 
     /tmp/ccC3GnLk.s:61     .text:0000000000000020 .L0 
     /tmp/ccC3GnLk.s:62     .text:0000000000000024 .L0 
     /tmp/ccC3GnLk.s:64     .text:0000000000000028 .L0 
     /tmp/ccC3GnLk.s:65     .text:0000000000000028 .L0 
     /tmp/ccC3GnLk.s:67     .text:000000000000002c .L0 
     /tmp/ccC3GnLk.s:72     .text:0000000000000034 .L0 
     /tmp/ccC3GnLk.s:78     .text:0000000000000034 _ZN9SemaphoreD2Ev
     /tmp/ccC3GnLk.s:81     .text:0000000000000034 .L0 
     /tmp/ccC3GnLk.s:3101   .data.rel.local.DW.ref.__gxx_personality_v0:0000000000000000 DW.ref.__gxx_personality_v0
     /tmp/ccC3GnLk.s:85     .text:0000000000000034 .L0 
     /tmp/ccC3GnLk.s:86     .text:0000000000000038 .L0 
     /tmp/ccC3GnLk.s:89     .text:0000000000000040 .L0 
     /tmp/ccC3GnLk.s:90     .text:0000000000000040 .L0 
     /tmp/ccC3GnLk.s:92     .text:0000000000000044 .L0 
     /tmp/ccC3GnLk.s:682    .data.rel.ro.local._ZTV9Semaphore:0000000000000000 _ZTV9Semaphore
     /tmp/ccC3GnLk.s:95     .text:0000000000000044 .L0 
     /tmp/ccC3GnLk.s:98     .text:0000000000000050 .L0 
     /tmp/ccC3GnLk.s:99     .text:0000000000000050 .L0 
     /tmp/ccC3GnLk.s:105    .text:000000000000005c .L0 
     /tmp/ccC3GnLk.s:106    .text:0000000000000060 .L0 
     /tmp/ccC3GnLk.s:108    .text:0000000000000064 .L0 
     /tmp/ccC3GnLk.s:109    .text:0000000000000064 .L0 
     /tmp/ccC3GnLk.s:111    .text:0000000000000068 .L0 
     /tmp/ccC3GnLk.s:113    .text:000000000000006c .L0 
     /tmp/ccC3GnLk.s:78     .text:0000000000000034 _ZN9SemaphoreD1Ev
     /tmp/ccC3GnLk.s:129    .text:000000000000006c _Znwm
     /tmp/ccC3GnLk.s:132    .text:000000000000006c .L0 
     /tmp/ccC3GnLk.s:134    .text:000000000000006c .L0 
     /tmp/ccC3GnLk.s:135    .text:0000000000000070 .L0 
     /tmp/ccC3GnLk.s:138    .text:0000000000000078 .L0 
     /tmp/ccC3GnLk.s:139    .text:0000000000000078 .L0 
     /tmp/ccC3GnLk.s:141    .text:000000000000007c .L0 
GAS LISTING /tmp/ccC3GnLk.s 			page 17


     /tmp/ccC3GnLk.s:143    .text:000000000000007c .L0 
     /tmp/ccC3GnLk.s:144    .text:000000000000007c .L0 
     /tmp/ccC3GnLk.s:147    .text:0000000000000084 .L0 
     /tmp/ccC3GnLk.s:148    .text:0000000000000088 .L0 
     /tmp/ccC3GnLk.s:150    .text:000000000000008c .L0 
     /tmp/ccC3GnLk.s:151    .text:000000000000008c .L0 
     /tmp/ccC3GnLk.s:153    .text:0000000000000090 .L0 
     /tmp/ccC3GnLk.s:155    .text:0000000000000094 .L0 
     /tmp/ccC3GnLk.s:161    .text:0000000000000094 _ZdlPv
     /tmp/ccC3GnLk.s:164    .text:0000000000000094 .L0 
     /tmp/ccC3GnLk.s:166    .text:0000000000000094 .L0 
     /tmp/ccC3GnLk.s:167    .text:0000000000000098 .L0 
     /tmp/ccC3GnLk.s:170    .text:00000000000000a0 .L0 
     /tmp/ccC3GnLk.s:171    .text:00000000000000a0 .L0 
     /tmp/ccC3GnLk.s:173    .text:00000000000000a4 .L0 
     /tmp/ccC3GnLk.s:175    .text:00000000000000a4 .L0 
     /tmp/ccC3GnLk.s:176    .text:00000000000000a4 .L0 
     /tmp/ccC3GnLk.s:179    .text:00000000000000ac .L0 
     /tmp/ccC3GnLk.s:180    .text:00000000000000b0 .L0 
     /tmp/ccC3GnLk.s:182    .text:00000000000000b4 .L0 
     /tmp/ccC3GnLk.s:183    .text:00000000000000b4 .L0 
     /tmp/ccC3GnLk.s:185    .text:00000000000000b8 .L0 
     /tmp/ccC3GnLk.s:187    .text:00000000000000bc .L0 
     /tmp/ccC3GnLk.s:193    .text:00000000000000bc _ZN6ThreadD2Ev
     /tmp/ccC3GnLk.s:196    .text:00000000000000bc .L0 
     /tmp/ccC3GnLk.s:200    .text:00000000000000bc .L0 
     /tmp/ccC3GnLk.s:201    .text:00000000000000c0 .L0 
     /tmp/ccC3GnLk.s:204    .text:00000000000000c8 .L0 
     /tmp/ccC3GnLk.s:205    .text:00000000000000c8 .L0 
     /tmp/ccC3GnLk.s:207    .text:00000000000000cc .L0 
     /tmp/ccC3GnLk.s:671    .data.rel.ro.local._ZTV6Thread:0000000000000000 _ZTV6Thread
     /tmp/ccC3GnLk.s:210    .text:00000000000000cc .L0 
     /tmp/ccC3GnLk.s:213    .text:00000000000000d8 .L0 
     /tmp/ccC3GnLk.s:214    .text:00000000000000d8 .L0 
     /tmp/ccC3GnLk.s:220    .text:00000000000000e4 .L0 
     /tmp/ccC3GnLk.s:221    .text:00000000000000e8 .L0 
     /tmp/ccC3GnLk.s:223    .text:00000000000000ec .L0 
     /tmp/ccC3GnLk.s:224    .text:00000000000000ec .L0 
     /tmp/ccC3GnLk.s:226    .text:00000000000000f0 .L0 
     /tmp/ccC3GnLk.s:228    .text:00000000000000f4 .L0 
     /tmp/ccC3GnLk.s:193    .text:00000000000000bc _ZN6ThreadD1Ev
     /tmp/ccC3GnLk.s:243    .text:00000000000000f4 _ZN6ThreadD0Ev
     /tmp/ccC3GnLk.s:246    .text:00000000000000f4 .L0 
     /tmp/ccC3GnLk.s:248    .text:00000000000000f4 .L0 
     /tmp/ccC3GnLk.s:249    .text:00000000000000f8 .L0 
     /tmp/ccC3GnLk.s:253    .text:0000000000000104 .L0 
     /tmp/ccC3GnLk.s:254    .text:0000000000000104 .L0 
     /tmp/ccC3GnLk.s:255    .text:0000000000000104 .L0 
     /tmp/ccC3GnLk.s:257    .text:0000000000000108 .L0 
     /tmp/ccC3GnLk.s:260    .text:000000000000010c .L0 
     /tmp/ccC3GnLk.s:266    .text:0000000000000124 .L0 
     /tmp/ccC3GnLk.s:268    .text:0000000000000128 .L0 
     /tmp/ccC3GnLk.s:269    .text:0000000000000128 .L0 
     /tmp/ccC3GnLk.s:271    .text:000000000000012c .L0 
     /tmp/ccC3GnLk.s:274    .text:0000000000000130 .L0 
     /tmp/ccC3GnLk.s:276    .text:0000000000000134 .L0 
     /tmp/ccC3GnLk.s:282    .text:0000000000000134 _ZN9SemaphoreD0Ev
GAS LISTING /tmp/ccC3GnLk.s 			page 18


     /tmp/ccC3GnLk.s:285    .text:0000000000000134 .L0 
     /tmp/ccC3GnLk.s:287    .text:0000000000000134 .L0 
     /tmp/ccC3GnLk.s:288    .text:0000000000000138 .L0 
     /tmp/ccC3GnLk.s:292    .text:0000000000000144 .L0 
     /tmp/ccC3GnLk.s:293    .text:0000000000000144 .L0 
     /tmp/ccC3GnLk.s:294    .text:0000000000000144 .L0 
     /tmp/ccC3GnLk.s:296    .text:0000000000000148 .L0 
     /tmp/ccC3GnLk.s:299    .text:000000000000014c .L0 
     /tmp/ccC3GnLk.s:305    .text:0000000000000164 .L0 
     /tmp/ccC3GnLk.s:307    .text:0000000000000168 .L0 
     /tmp/ccC3GnLk.s:308    .text:0000000000000168 .L0 
     /tmp/ccC3GnLk.s:310    .text:000000000000016c .L0 
     /tmp/ccC3GnLk.s:313    .text:0000000000000170 .L0 
     /tmp/ccC3GnLk.s:315    .text:0000000000000174 .L0 
     /tmp/ccC3GnLk.s:321    .text:0000000000000174 _ZN6ThreadC2EPFvPvES0_
     /tmp/ccC3GnLk.s:324    .text:0000000000000174 .L0 
     /tmp/ccC3GnLk.s:326    .text:0000000000000174 .L0 
     /tmp/ccC3GnLk.s:327    .text:0000000000000178 .L0 
     /tmp/ccC3GnLk.s:330    .text:0000000000000180 .L0 
     /tmp/ccC3GnLk.s:331    .text:0000000000000180 .L0 
     /tmp/ccC3GnLk.s:333    .text:0000000000000184 .L0 
     /tmp/ccC3GnLk.s:336    .text:0000000000000184 .L0 
     /tmp/ccC3GnLk.s:339    .text:0000000000000190 .L0 
     /tmp/ccC3GnLk.s:340    .text:0000000000000190 .L0 
     /tmp/ccC3GnLk.s:346    .text:000000000000019c .L0 
     /tmp/ccC3GnLk.s:347    .text:00000000000001a0 .L0 
     /tmp/ccC3GnLk.s:349    .text:00000000000001a4 .L0 
     /tmp/ccC3GnLk.s:350    .text:00000000000001a4 .L0 
     /tmp/ccC3GnLk.s:352    .text:00000000000001a8 .L0 
     /tmp/ccC3GnLk.s:354    .text:00000000000001ac .L0 
     /tmp/ccC3GnLk.s:321    .text:0000000000000174 _ZN6ThreadC1EPFvPvES0_
     /tmp/ccC3GnLk.s:362    .text:00000000000001ac _ZN6ThreadC2Ev
     /tmp/ccC3GnLk.s:365    .text:00000000000001ac .L0 
     /tmp/ccC3GnLk.s:367    .text:00000000000001ac .L0 
     /tmp/ccC3GnLk.s:368    .text:00000000000001b0 .L0 
     /tmp/ccC3GnLk.s:371    .text:00000000000001b8 .L0 
     /tmp/ccC3GnLk.s:372    .text:00000000000001b8 .L0 
     /tmp/ccC3GnLk.s:374    .text:00000000000001bc .L0 
     /tmp/ccC3GnLk.s:377    .text:00000000000001bc .L0 
     /tmp/ccC3GnLk.s:380    .text:00000000000001c8 .L0 
     /tmp/ccC3GnLk.s:381    .text:00000000000001c8 .L0 
     /tmp/ccC3GnLk.s:389    .text:00000000000001e0 .L0 
     /tmp/ccC3GnLk.s:390    .text:00000000000001e4 .L0 
     /tmp/ccC3GnLk.s:392    .text:00000000000001e8 .L0 
     /tmp/ccC3GnLk.s:393    .text:00000000000001e8 .L0 
     /tmp/ccC3GnLk.s:395    .text:00000000000001ec .L0 
     /tmp/ccC3GnLk.s:397    .text:00000000000001f0 .L0 
     /tmp/ccC3GnLk.s:362    .text:00000000000001ac _ZN6ThreadC1Ev
     /tmp/ccC3GnLk.s:405    .text:00000000000001f0 _ZN6Thread5startEv
     /tmp/ccC3GnLk.s:408    .text:00000000000001f0 .L0 
     /tmp/ccC3GnLk.s:410    .text:00000000000001f0 .L0 
     /tmp/ccC3GnLk.s:411    .text:00000000000001f4 .L0 
     /tmp/ccC3GnLk.s:414    .text:00000000000001fc .L0 
     /tmp/ccC3GnLk.s:415    .text:00000000000001fc .L0 
     /tmp/ccC3GnLk.s:417    .text:0000000000000200 .L0 
     /tmp/ccC3GnLk.s:419    .text:0000000000000200 .L0 
     /tmp/ccC3GnLk.s:420    .text:0000000000000200 .L0 
GAS LISTING /tmp/ccC3GnLk.s 			page 19


     /tmp/ccC3GnLk.s:425    .text:000000000000020c .L0 
     /tmp/ccC3GnLk.s:426    .text:000000000000020c .L0 
     /tmp/ccC3GnLk.s:428    .text:0000000000000214 .L0 
     /tmp/ccC3GnLk.s:430    .text:0000000000000218 .L0 
     /tmp/ccC3GnLk.s:431    .text:0000000000000218 .L0 
     /tmp/ccC3GnLk.s:433    .text:000000000000021c .L0 
     /tmp/ccC3GnLk.s:435    .text:0000000000000220 .L0 
     /tmp/ccC3GnLk.s:441    .text:0000000000000220 _ZN6Thread8dispatchEv
     /tmp/ccC3GnLk.s:444    .text:0000000000000220 .L0 
     /tmp/ccC3GnLk.s:445    .text:0000000000000220 .L0 
     /tmp/ccC3GnLk.s:446    .text:0000000000000224 .L0 
     /tmp/ccC3GnLk.s:449    .text:000000000000022c .L0 
     /tmp/ccC3GnLk.s:450    .text:000000000000022c .L0 
     /tmp/ccC3GnLk.s:452    .text:0000000000000230 .L0 
     /tmp/ccC3GnLk.s:454    .text:0000000000000230 .L0 
     /tmp/ccC3GnLk.s:455    .text:0000000000000230 .L0 
     /tmp/ccC3GnLk.s:458    .text:0000000000000238 .L0 
     /tmp/ccC3GnLk.s:459    .text:000000000000023c .L0 
     /tmp/ccC3GnLk.s:461    .text:0000000000000240 .L0 
     /tmp/ccC3GnLk.s:462    .text:0000000000000240 .L0 
     /tmp/ccC3GnLk.s:464    .text:0000000000000244 .L0 
     /tmp/ccC3GnLk.s:466    .text:0000000000000248 .L0 
     /tmp/ccC3GnLk.s:472    .text:0000000000000248 _ZN6Thread5sleepEm
     /tmp/ccC3GnLk.s:475    .text:0000000000000248 .L0 
     /tmp/ccC3GnLk.s:476    .text:0000000000000248 .L0 
     /tmp/ccC3GnLk.s:477    .text:000000000000024c .L0 
     /tmp/ccC3GnLk.s:479    .text:0000000000000250 .L0 
     /tmp/ccC3GnLk.s:481    .text:0000000000000254 .L0 
     /tmp/ccC3GnLk.s:483    .text:0000000000000254 .L0 
     /tmp/ccC3GnLk.s:484    .text:0000000000000254 .L0 
     /tmp/ccC3GnLk.s:486    .text:000000000000025c .L0 
     /tmp/ccC3GnLk.s:487    .text:000000000000025c .L0 
     /tmp/ccC3GnLk.s:489    .text:0000000000000260 .L0 
     /tmp/ccC3GnLk.s:491    .text:0000000000000264 .L0 
     /tmp/ccC3GnLk.s:497    .text:0000000000000264 _ZN9SemaphoreC2Ej
     /tmp/ccC3GnLk.s:500    .text:0000000000000264 .L0 
     /tmp/ccC3GnLk.s:502    .text:0000000000000264 .L0 
     /tmp/ccC3GnLk.s:503    .text:0000000000000268 .L0 
     /tmp/ccC3GnLk.s:506    .text:0000000000000270 .L0 
     /tmp/ccC3GnLk.s:507    .text:0000000000000270 .L0 
     /tmp/ccC3GnLk.s:509    .text:0000000000000274 .L0 
     /tmp/ccC3GnLk.s:512    .text:0000000000000274 .L0 
     /tmp/ccC3GnLk.s:515    .text:0000000000000280 .L0 
     /tmp/ccC3GnLk.s:516    .text:0000000000000280 .L0 
     /tmp/ccC3GnLk.s:522    .text:000000000000028c .L0 
     /tmp/ccC3GnLk.s:523    .text:0000000000000290 .L0 
     /tmp/ccC3GnLk.s:525    .text:0000000000000294 .L0 
     /tmp/ccC3GnLk.s:526    .text:0000000000000294 .L0 
     /tmp/ccC3GnLk.s:528    .text:0000000000000298 .L0 
     /tmp/ccC3GnLk.s:530    .text:000000000000029c .L0 
     /tmp/ccC3GnLk.s:497    .text:0000000000000264 _ZN9SemaphoreC1Ej
     /tmp/ccC3GnLk.s:538    .text:000000000000029c _ZN9Semaphore4waitEv
     /tmp/ccC3GnLk.s:541    .text:000000000000029c .L0 
     /tmp/ccC3GnLk.s:543    .text:000000000000029c .L0 
     /tmp/ccC3GnLk.s:544    .text:00000000000002a0 .L0 
     /tmp/ccC3GnLk.s:547    .text:00000000000002a8 .L0 
     /tmp/ccC3GnLk.s:548    .text:00000000000002a8 .L0 
GAS LISTING /tmp/ccC3GnLk.s 			page 20


     /tmp/ccC3GnLk.s:550    .text:00000000000002ac .L0 
     /tmp/ccC3GnLk.s:552    .text:00000000000002ac .L0 
     /tmp/ccC3GnLk.s:553    .text:00000000000002ac .L0 
     /tmp/ccC3GnLk.s:558    .text:00000000000002b8 .L0 
     /tmp/ccC3GnLk.s:559    .text:00000000000002bc .L0 
     /tmp/ccC3GnLk.s:561    .text:00000000000002c0 .L0 
     /tmp/ccC3GnLk.s:562    .text:00000000000002c0 .L0 
     /tmp/ccC3GnLk.s:564    .text:00000000000002c4 .L0 
     /tmp/ccC3GnLk.s:566    .text:00000000000002c8 .L0 
     /tmp/ccC3GnLk.s:572    .text:00000000000002c8 _ZN9Semaphore6signalEv
     /tmp/ccC3GnLk.s:575    .text:00000000000002c8 .L0 
     /tmp/ccC3GnLk.s:577    .text:00000000000002c8 .L0 
     /tmp/ccC3GnLk.s:578    .text:00000000000002cc .L0 
     /tmp/ccC3GnLk.s:581    .text:00000000000002d4 .L0 
     /tmp/ccC3GnLk.s:582    .text:00000000000002d4 .L0 
     /tmp/ccC3GnLk.s:584    .text:00000000000002d8 .L0 
     /tmp/ccC3GnLk.s:586    .text:00000000000002d8 .L0 
     /tmp/ccC3GnLk.s:587    .text:00000000000002d8 .L0 
     /tmp/ccC3GnLk.s:592    .text:00000000000002e4 .L0 
     /tmp/ccC3GnLk.s:593    .text:00000000000002e8 .L0 
     /tmp/ccC3GnLk.s:595    .text:00000000000002ec .L0 
     /tmp/ccC3GnLk.s:596    .text:00000000000002ec .L0 
     /tmp/ccC3GnLk.s:598    .text:00000000000002f0 .L0 
     /tmp/ccC3GnLk.s:600    .text:00000000000002f4 .L0 
     /tmp/ccC3GnLk.s:606    .text:00000000000002f4 _ZN7Console4getcEv
     /tmp/ccC3GnLk.s:609    .text:00000000000002f4 .L0 
     /tmp/ccC3GnLk.s:610    .text:00000000000002f4 .L0 
     /tmp/ccC3GnLk.s:611    .text:00000000000002f8 .L0 
     /tmp/ccC3GnLk.s:614    .text:0000000000000300 .L0 
     /tmp/ccC3GnLk.s:615    .text:0000000000000300 .L0 
     /tmp/ccC3GnLk.s:617    .text:0000000000000304 .L0 
     /tmp/ccC3GnLk.s:619    .text:0000000000000304 .L0 
     /tmp/ccC3GnLk.s:620    .text:0000000000000304 .L0 
     /tmp/ccC3GnLk.s:623    .text:000000000000030c .L0 
     /tmp/ccC3GnLk.s:624    .text:0000000000000310 .L0 
     /tmp/ccC3GnLk.s:626    .text:0000000000000314 .L0 
     /tmp/ccC3GnLk.s:627    .text:0000000000000314 .L0 
     /tmp/ccC3GnLk.s:629    .text:0000000000000318 .L0 
     /tmp/ccC3GnLk.s:631    .text:000000000000031c .L0 
     /tmp/ccC3GnLk.s:637    .text:000000000000031c _ZN7Console4putcEc
     /tmp/ccC3GnLk.s:640    .text:000000000000031c .L0 
     /tmp/ccC3GnLk.s:642    .text:000000000000031c .L0 
     /tmp/ccC3GnLk.s:643    .text:0000000000000320 .L0 
     /tmp/ccC3GnLk.s:646    .text:0000000000000328 .L0 
     /tmp/ccC3GnLk.s:647    .text:0000000000000328 .L0 
     /tmp/ccC3GnLk.s:649    .text:000000000000032c .L0 
     /tmp/ccC3GnLk.s:651    .text:000000000000032c .L0 
     /tmp/ccC3GnLk.s:652    .text:000000000000032c .L0 
     /tmp/ccC3GnLk.s:655    .text:0000000000000334 .L0 
     /tmp/ccC3GnLk.s:656    .text:0000000000000338 .L0 
     /tmp/ccC3GnLk.s:658    .text:000000000000033c .L0 
     /tmp/ccC3GnLk.s:659    .text:000000000000033c .L0 
     /tmp/ccC3GnLk.s:661    .text:0000000000000340 .L0 
     /tmp/ccC3GnLk.s:663    .text:0000000000000344 .L0 
     /tmp/ccC3GnLk.s:32     .text._ZN6Thread3runEv:0000000000000018 .L0 
     /tmp/ccC3GnLk.s:692    .text:0000000000000344 .L0 
     /tmp/ccC3GnLk.s:95     .text:0000000000000044 .L0 
GAS LISTING /tmp/ccC3GnLk.s 			page 21


     /tmp/ccC3GnLk.s:210    .text:00000000000000cc .L0 
     /tmp/ccC3GnLk.s:336    .text:0000000000000184 .L0 
     /tmp/ccC3GnLk.s:377    .text:00000000000001bc .L0 
     /tmp/ccC3GnLk.s:382    .text:00000000000001cc .L0 
     /tmp/ccC3GnLk.s:512    .text:0000000000000274 .L0 
     /tmp/ccC3GnLk.s:70     .text:0000000000000030 .L6
     /tmp/ccC3GnLk.s:1733   .debug_abbrev:0000000000000000 .Ldebug_abbrev0
     /tmp/ccC3GnLk.s:3065   .debug_str:0000000000000484 .LASF83
     /tmp/ccC3GnLk.s:3047   .debug_str:000000000000040c .LASF84
     /tmp/ccC3GnLk.s:2989   .debug_str:0000000000000264 .LASF85
     /tmp/ccC3GnLk.s:2897   .debug_ranges:0000000000000000 .Ldebug_ranges0
     /tmp/ccC3GnLk.s:2905   .debug_line:0000000000000000 .Ldebug_line0
     /tmp/ccC3GnLk.s:2907   .debug_str:0000000000000000 .LASF0
     /tmp/ccC3GnLk.s:2945   .debug_str:0000000000000113 .LASF1
     /tmp/ccC3GnLk.s:2979   .debug_str:000000000000022a .LASF2
     /tmp/ccC3GnLk.s:2943   .debug_str:000000000000010c .LASF3
     /tmp/ccC3GnLk.s:3051   .debug_str:0000000000000436 .LASF4
     /tmp/ccC3GnLk.s:3083   .debug_str:00000000000005af .LASF5
     /tmp/ccC3GnLk.s:3019   .debug_str:000000000000034c .LASF6
     /tmp/ccC3GnLk.s:3001   .debug_str:00000000000002cd .LASF7
     /tmp/ccC3GnLk.s:3011   .debug_str:0000000000000327 .LASF8
     /tmp/ccC3GnLk.s:2921   .debug_str:0000000000000065 .LASF9
     /tmp/ccC3GnLk.s:3023   .debug_str:0000000000000372 .LASF10
     /tmp/ccC3GnLk.s:3009   .debug_str:0000000000000314 .LASF11
     /tmp/ccC3GnLk.s:3075   .debug_str:0000000000000573 .LASF12
     /tmp/ccC3GnLk.s:2965   .debug_str:00000000000001c4 .LASF13
     /tmp/ccC3GnLk.s:3033   .debug_str:00000000000003ae .LASF14
     /tmp/ccC3GnLk.s:3025   .debug_str:0000000000000385 .LASF15
     /tmp/ccC3GnLk.s:2991   .debug_str:000000000000027d .LASF16
     /tmp/ccC3GnLk.s:2911   .debug_str:0000000000000013 .LASF17
     /tmp/ccC3GnLk.s:2933   .debug_str:00000000000000c5 .LASF18
     /tmp/ccC3GnLk.s:3049   .debug_str:0000000000000420 .LASF19
     /tmp/ccC3GnLk.s:2939   .debug_str:00000000000000e8 .LASF20
     /tmp/ccC3GnLk.s:2975   .debug_str:0000000000000210 .LASF86
     /tmp/ccC3GnLk.s:2913   .debug_str:0000000000000023 .LASF87
     /tmp/ccC3GnLk.s:2929   .debug_str:00000000000000a0 .LASF88
     /tmp/ccC3GnLk.s:2927   .debug_str:000000000000009b .LASF22
     /tmp/ccC3GnLk.s:3021   .debug_str:000000000000035f .LASF89
     /tmp/ccC3GnLk.s:3027   .debug_str:0000000000000394 .LASF21
     /tmp/ccC3GnLk.s:2909   .debug_str:0000000000000009 .LASF23
     /tmp/ccC3GnLk.s:2987   .debug_str:000000000000024f .LASF29
     /tmp/ccC3GnLk.s:3005   .debug_str:00000000000002f2 .LASF31
     /tmp/ccC3GnLk.s:3069   .debug_str:000000000000054f .LASF33
     /tmp/ccC3GnLk.s:3045   .debug_str:0000000000000401 .LASF35
     /tmp/ccC3GnLk.s:2931   .debug_str:00000000000000b3 .LASF37
     /tmp/ccC3GnLk.s:3089   .debug_str:00000000000005e6 .LASF24
     /tmp/ccC3GnLk.s:3043   .debug_str:00000000000003ec .LASF26
     /tmp/ccC3GnLk.s:3029   .debug_str:0000000000000399 .LASF25
     /tmp/ccC3GnLk.s:2951   .debug_str:000000000000012f .LASF27
     /tmp/ccC3GnLk.s:3085   .debug_str:00000000000005bc .LASF44
     /tmp/ccC3GnLk.s:3077   .debug_str:0000000000000583 .LASF90
     /tmp/ccC3GnLk.s:3071   .debug_str:0000000000000561 .LASF28
     /tmp/ccC3GnLk.s:3007   .debug_str:0000000000000302 .LASF30
     /tmp/ccC3GnLk.s:2999   .debug_str:00000000000002c0 .LASF32
     /tmp/ccC3GnLk.s:3037   .debug_str:00000000000003c7 .LASF34
     /tmp/ccC3GnLk.s:2985   .debug_str:0000000000000247 .LASF36
     /tmp/ccC3GnLk.s:3015   .debug_str:0000000000000337 .LASF38
GAS LISTING /tmp/ccC3GnLk.s 			page 22


     /tmp/ccC3GnLk.s:3017   .debug_str:0000000000000346 .LASF39
     /tmp/ccC3GnLk.s:2961   .debug_str:00000000000001a2 .LASF40
     /tmp/ccC3GnLk.s:3013   .debug_str:000000000000032e .LASF91
     /tmp/ccC3GnLk.s:2957   .debug_str:000000000000016d .LASF92
     /tmp/ccC3GnLk.s:3061   .debug_str:000000000000046f .LASF41
     /tmp/ccC3GnLk.s:2967   .debug_str:00000000000001d2 .LASF42
     /tmp/ccC3GnLk.s:2963   .debug_str:00000000000001b5 .LASF43
     /tmp/ccC3GnLk.s:2925   .debug_str:000000000000008a .LASF93
     /tmp/ccC3GnLk.s:2981   .debug_str:0000000000000238 .LASF45
     /tmp/ccC3GnLk.s:638    .text:000000000000031c .LFB27
     /tmp/ccC3GnLk.s:664    .text:0000000000000344 .LFE27
     /tmp/ccC3GnLk.s:2604   .debug_loc:0000000000000000 .LLST16
     /tmp/ccC3GnLk.s:653    .text:0000000000000334 .LVL43
     /tmp/ccC3GnLk.s:607    .text:00000000000002f4 .LFB26
     /tmp/ccC3GnLk.s:632    .text:000000000000031c .LFE26
     /tmp/ccC3GnLk.s:621    .text:000000000000030c .LVL41
     /tmp/ccC3GnLk.s:573    .text:00000000000002c8 .LFB25
     /tmp/ccC3GnLk.s:601    .text:00000000000002f4 .LFE25
     /tmp/ccC3GnLk.s:3041   .debug_str:00000000000003e7 .LASF46
     /tmp/ccC3GnLk.s:2618   .debug_loc:0000000000000039 .LLST15
     /tmp/ccC3GnLk.s:590    .text:00000000000002e4 .LVL40
     /tmp/ccC3GnLk.s:539    .text:000000000000029c .LFB24
     /tmp/ccC3GnLk.s:567    .text:00000000000002c8 .LFE24
     /tmp/ccC3GnLk.s:2632   .debug_loc:0000000000000072 .LLST14
     /tmp/ccC3GnLk.s:556    .text:00000000000002b8 .LVL37
     /tmp/ccC3GnLk.s:3035   .debug_str:00000000000003bd .LASF47
     /tmp/ccC3GnLk.s:2955   .debug_str:000000000000015b .LASF48
     /tmp/ccC3GnLk.s:283    .text:0000000000000134 .LFB23
     /tmp/ccC3GnLk.s:316    .text:0000000000000174 .LFE23
     /tmp/ccC3GnLk.s:2646   .debug_loc:00000000000000ab .LLST6
     /tmp/ccC3GnLk.s:300    .text:0000000000000154 .LVL19
     /tmp/ccC3GnLk.s:303    .text:0000000000000160 .LVL20
     /tmp/ccC3GnLk.s:2977   .debug_str:0000000000000218 .LASF49
     /tmp/ccC3GnLk.s:79     .text:0000000000000034 .LFB21
     /tmp/ccC3GnLk.s:114    .text:000000000000006c .LFE21
     /tmp/ccC3GnLk.s:2664   .debug_loc:00000000000000f7 .LLST1
     /tmp/ccC3GnLk.s:102    .text:000000000000005c .LVL6
     /tmp/ccC3GnLk.s:3091   .debug_str:00000000000005eb .LASF56
     /tmp/ccC3GnLk.s:2919   .debug_str:0000000000000053 .LASF50
     /tmp/ccC3GnLk.s:498    .text:0000000000000264 .LFB18
     /tmp/ccC3GnLk.s:531    .text:000000000000029c .LFE18
     /tmp/ccC3GnLk.s:2678   .debug_loc:0000000000000130 .LLST12
     /tmp/ccC3GnLk.s:2698   .debug_loc:000000000000017e .LLST13
     /tmp/ccC3GnLk.s:519    .text:000000000000028c .LVL34
     /tmp/ccC3GnLk.s:473    .text:0000000000000248 .LFB16
     /tmp/ccC3GnLk.s:492    .text:0000000000000264 .LFE16
     /tmp/ccC3GnLk.s:442    .text:0000000000000220 .LFB15
     /tmp/ccC3GnLk.s:467    .text:0000000000000248 .LFE15
     /tmp/ccC3GnLk.s:456    .text:0000000000000238 .LVL31
     /tmp/ccC3GnLk.s:406    .text:00000000000001f0 .LFB14
     /tmp/ccC3GnLk.s:436    .text:0000000000000220 .LFE14
     /tmp/ccC3GnLk.s:2712   .debug_loc:00000000000001b7 .LLST11
     /tmp/ccC3GnLk.s:423    .text:000000000000020c .LVL30
     /tmp/ccC3GnLk.s:2915   .debug_str:0000000000000028 .LASF51
     /tmp/ccC3GnLk.s:244    .text:00000000000000f4 .LFB13
     /tmp/ccC3GnLk.s:277    .text:0000000000000134 .LFE13
     /tmp/ccC3GnLk.s:2732   .debug_loc:0000000000000205 .LLST5
GAS LISTING /tmp/ccC3GnLk.s 			page 23


     /tmp/ccC3GnLk.s:261    .text:0000000000000114 .LVL15
     /tmp/ccC3GnLk.s:264    .text:0000000000000120 .LVL16
     /tmp/ccC3GnLk.s:3063   .debug_str:0000000000000475 .LASF52
     /tmp/ccC3GnLk.s:194    .text:00000000000000bc .LFB11
     /tmp/ccC3GnLk.s:229    .text:00000000000000f4 .LFE11
     /tmp/ccC3GnLk.s:2750   .debug_loc:0000000000000251 .LLST4
     /tmp/ccC3GnLk.s:217    .text:00000000000000e4 .LVL13
     /tmp/ccC3GnLk.s:3079   .debug_str:0000000000000593 .LASF53
     /tmp/ccC3GnLk.s:363    .text:00000000000001ac .LFB8
     /tmp/ccC3GnLk.s:398    .text:00000000000001f0 .LFE8
     /tmp/ccC3GnLk.s:2770   .debug_loc:000000000000029f .LLST10
     /tmp/ccC3GnLk.s:386    .text:00000000000001e0 .LVL27
     /tmp/ccC3GnLk.s:3057   .debug_str:0000000000000462 .LASF54
     /tmp/ccC3GnLk.s:2969   .debug_str:00000000000001e5 .LASF55
     /tmp/ccC3GnLk.s:37     .text:0000000000000000 .LFB6
     /tmp/ccC3GnLk.s:73     .text:0000000000000034 .LFE6
     /tmp/ccC3GnLk.s:2788   .debug_loc:00000000000002eb .LLST0
     /tmp/ccC3GnLk.s:59     .text:0000000000000020 .LVL2
     /tmp/ccC3GnLk.s:2973   .debug_str:00000000000001f9 .LASF57
     /tmp/ccC3GnLk.s:322    .text:0000000000000174 .LFB4
     /tmp/ccC3GnLk.s:355    .text:00000000000001ac .LFE4
     /tmp/ccC3GnLk.s:2806   .debug_loc:0000000000000337 .LLST7
     /tmp/ccC3GnLk.s:2826   .debug_loc:0000000000000385 .LLST8
     /tmp/ccC3GnLk.s:2840   .debug_loc:00000000000003be .LLST9
     /tmp/ccC3GnLk.s:343    .text:000000000000019c .LVL24
     /tmp/ccC3GnLk.s:3055   .debug_str:0000000000000452 .LASF58
     /tmp/ccC3GnLk.s:3093   .debug_str:00000000000005f0 .LASF59
     /tmp/ccC3GnLk.s:162    .text:0000000000000094 .LFB2
     /tmp/ccC3GnLk.s:188    .text:00000000000000bc .LFE2
     /tmp/ccC3GnLk.s:2854   .debug_loc:00000000000003f7 .LLST3
     /tmp/ccC3GnLk.s:177    .text:00000000000000ac .LVL10
     /tmp/ccC3GnLk.s:3081   .debug_str:00000000000005a2 .LASF60
     /tmp/ccC3GnLk.s:2997   .debug_str:00000000000002ba .LASF61
     /tmp/ccC3GnLk.s:130    .text:000000000000006c .LFB1
     /tmp/ccC3GnLk.s:156    .text:0000000000000094 .LFE1
     /tmp/ccC3GnLk.s:3059   .debug_str:000000000000046a .LASF62
     /tmp/ccC3GnLk.s:2868   .debug_loc:0000000000000430 .LLST2
     /tmp/ccC3GnLk.s:145    .text:0000000000000084 .LVL8
     /tmp/ccC3GnLk.s:11     .text._ZN6Thread3runEv:0000000000000000 .LFB0
     /tmp/ccC3GnLk.s:30     .text._ZN6Thread3runEv:0000000000000018 .LFE0
     /tmp/ccC3GnLk.s:3067   .debug_str:0000000000000548 .LASF63
     /tmp/ccC3GnLk.s:2971   .debug_str:00000000000001f2 .LASF64
     /tmp/ccC3GnLk.s:2959   .debug_str:0000000000000183 .LASF65
     /tmp/ccC3GnLk.s:3073   .debug_str:0000000000000568 .LASF66
     /tmp/ccC3GnLk.s:2917   .debug_str:0000000000000037 .LASF67
     /tmp/ccC3GnLk.s:2935   .debug_str:00000000000000d1 .LASF68
     /tmp/ccC3GnLk.s:2995   .debug_str:000000000000029d .LASF69
     /tmp/ccC3GnLk.s:2983   .debug_str:000000000000023d .LASF70
     /tmp/ccC3GnLk.s:2923   .debug_str:000000000000006c .LASF71
     /tmp/ccC3GnLk.s:2949   .debug_str:0000000000000126 .LASF72
     /tmp/ccC3GnLk.s:2953   .debug_str:0000000000000146 .LASF73
     /tmp/ccC3GnLk.s:2993   .debug_str:000000000000028d .LASF74
     /tmp/ccC3GnLk.s:3003   .debug_str:00000000000002db .LASF75
     /tmp/ccC3GnLk.s:2947   .debug_str:0000000000000119 .LASF76
     /tmp/ccC3GnLk.s:3087   .debug_str:00000000000005c5 .LASF77
     /tmp/ccC3GnLk.s:2941   .debug_str:00000000000000fe .LASF78
     /tmp/ccC3GnLk.s:3031   .debug_str:00000000000003a0 .LASF79
GAS LISTING /tmp/ccC3GnLk.s 			page 24


     /tmp/ccC3GnLk.s:3039   .debug_str:00000000000003de .LASF80
     /tmp/ccC3GnLk.s:2937   .debug_str:00000000000000da .LASF81
     /tmp/ccC3GnLk.s:3053   .debug_str:0000000000000448 .LASF82
     /tmp/ccC3GnLk.s:641    .text:000000000000031c .LVL42
     /tmp/ccC3GnLk.s:576    .text:00000000000002c8 .LVL38
     /tmp/ccC3GnLk.s:588    .text:00000000000002dc .LVL39
     /tmp/ccC3GnLk.s:542    .text:000000000000029c .LVL35
     /tmp/ccC3GnLk.s:554    .text:00000000000002b0 .LVL36
     /tmp/ccC3GnLk.s:286    .text:0000000000000134 .LVL18
     /tmp/ccC3GnLk.s:311    .text:000000000000016c .LVL21
     /tmp/ccC3GnLk.s:84     .text:0000000000000034 .LVL4
     /tmp/ccC3GnLk.s:100    .text:0000000000000054 .LVL5
     /tmp/ccC3GnLk.s:501    .text:0000000000000264 .LVL32
     /tmp/ccC3GnLk.s:517    .text:0000000000000284 .LVL33
     /tmp/ccC3GnLk.s:409    .text:00000000000001f0 .LVL28
     /tmp/ccC3GnLk.s:421    .text:0000000000000204 .LVL29
     /tmp/ccC3GnLk.s:247    .text:00000000000000f4 .LVL14
     /tmp/ccC3GnLk.s:272    .text:000000000000012c .LVL17
     /tmp/ccC3GnLk.s:199    .text:00000000000000bc .LVL11
     /tmp/ccC3GnLk.s:215    .text:00000000000000dc .LVL12
     /tmp/ccC3GnLk.s:366    .text:00000000000001ac .LVL25
     /tmp/ccC3GnLk.s:384    .text:00000000000001d8 .LVL26
     /tmp/ccC3GnLk.s:41     .text:0000000000000000 .LVL1
     /tmp/ccC3GnLk.s:69     .text:0000000000000030 .LVL3
     /tmp/ccC3GnLk.s:325    .text:0000000000000174 .LVL22
     /tmp/ccC3GnLk.s:341    .text:0000000000000194 .LVL23
     /tmp/ccC3GnLk.s:165    .text:0000000000000094 .LVL9
     /tmp/ccC3GnLk.s:133    .text:000000000000006c .LVL7
     /tmp/ccC3GnLk.s:693    .debug_info:0000000000000000 .Ldebug_info0
     /tmp/ccC3GnLk.s:5      .text:0000000000000000 .Ltext0
     /tmp/ccC3GnLk.s:688    .text:0000000000000344 .Letext0
     /tmp/ccC3GnLk.s:117    .gcc_except_table:0000000000000000 .LLSDA21
     /tmp/ccC3GnLk.s:231    .gcc_except_table:0000000000000004 .LLSDA11

UNDEFINED SYMBOLS
_Z9sem_closeP13BackSemaphore
__gxx_personality_v0
_Z9mem_allocm
_Z8mem_freePv
_Z13thread_createPP3PCBPFvPvES2_
_Z12thread_startPP3PCB
_Z15thread_dispatchv
_Z8sem_openPP13BackSemaphorej
_Z8sem_waitP13BackSemaphore
_Z10sem_signalP13BackSemaphore
__getc
__putc
